 
                                                                                                                                                                                                                                                                
 
gvkeyx        from        thru    tic         gvkey     co_conm                                                      co_tic      co_cusip     co_cik        co_sic    co_naics    iid

000003    19640331           .    I0003       001078    ABBOTT LABORATORIES                                          ABT         002824100    0000001800     2834      325412     01 
000003    19640331           .    I0003       001300    HONEYWELL INTERNATIONAL INC                                  HON         438516106    0000773840     9997      336413     01 
000003    19640331           .    I0003       001440    AMERICAN ELECTRIC POWER CO                                   AEP         025537101    0000004904     4911      2211       01 
000003    19640331           .    I0003       002285    BOEING CO                                                    BA          097023105    0000012927     3721      336411     01 
000003    19640331           .    I0003       002403    BRISTOL-MYERS SQUIBB CO                                      BMY         110122108    0000014272     2834      325412     01 
000003    19640331           .    I0003       002663    CAMPBELL SOUP CO                                             CPB         134429109    0000016732     2030      311422     01 
000003    19640331           .    I0003       002817    CATERPILLAR INC                                              CAT         149123101    0000018230     3531      333120     01 
000003    19640331           .    I0003       002991    CHEVRON CORP                                                 CVX         166764100    0000093410     2911      324110     01 
000003    19640331           .    I0003       003144    COCA-COLA CO                                                 KO          191216100    0000021344     2086      312111     01 
000003    19640331           .    I0003       003170    COLGATE-PALMOLIVE CO                                         CL          194162103    0000021665     2844      325620     01 
000003    19640331           .    I0003       003413    CONSOLIDATED EDISON INC                                      ED          209115104    0001047862     4931      22111      01 
000003    19640331           .    I0003       003532    CORNING INC                                                  GLW         219350105    0000024741     3679      334419     01 
000003    19640331           .    I0003       003835    DEERE & CO                                                   DE          244199105    0000315189     3523      333111     01 
000003    19640331           .    I0003       003897    DTE ENERGY CO                                                DTE         233331107    0000936340     4931      2211       01 
000003    19640331           .    I0003       004029    DOMINION ENERGY INC                                          D           25746U109    0000715957     4911      22111      01 
000003    19640331           .    I0003       004060    DOW CHEMICAL                                                 DOW         260543103    0000029915     2821      325211     01 
000003    19640331           .    I0003       004087    DU PONT (E I) DE NEMOURS                                     DD          263534109    0000030554     2820      3252       01 
000003    19640331           .    I0003       004199    EATON CORP PLC                                               ETN         G29183103    0001551182     3620      335314     01 
000003    19640331           .    I0003       004503    EXXON MOBIL CORP                                             XOM         30231G102    0000034088     2911      324110     01 
000003    19640331           .    I0003       004839    FORD MOTOR CO                                                F           345370860    0000037996     3711      33611      01 
000003    19640331           .    I0003       005046    GENERAL DYNAMICS CORP                                        GD          369550108    0000040533     3721      336411     01 
000003    19640331           .    I0003       005047    GENERAL ELECTRIC CO                                          GE          369604103    0000040545     9997      999977     01 
000003    19640331           .    I0003       005234    GOODYEAR TIRE & RUBBER CO                                    GT          382550101    0000042582     3011      326211     01 
000003    19640331           .    I0003       005439    HALLIBURTON CO                                               HAL         406216101    0000045012     1389      213112     01 
000003    19640331           .    I0003       005597    HERSHEY CO                                                   HSY         427866108    0000047111     2060      311351     01 
000003    19640331           .    I0003       006066    INTL BUSINESS MACHINES CORP                                  IBM         459200101    0000051143     7370      519130     01 
000003    19640331           .    I0003       006104    INTL PAPER CO                                                IP          460146103    0000051434     2631      322130     01 
000003    19640331           .    I0003       006375    KELLOGG CO                                                   K           487836108    0000055067     2040      311230     01 
000003    19640331           .    I0003       006435    KIMBERLY-CLARK CORP                                          KMB         494368103    0000055785     2621      322121     01 
000003    19640331           .    I0003       006502    KROGER CO                                                    KR          501044101    0000056873     5411      445110     01 
000003    19640331           .    I0003       007163    S&P GLOBAL INC                                               SPGI        78409V104    0000064040     7323      561450     01 
000003    19640331           .    I0003       007241    CVS HEALTH CORP                                              CVS         126650100    0000064803     5912      446110     01 
000003    19640331           .    I0003       007257    MERCK & CO                                                   MRK         58933Y105    0000310158     2834      325412     01 
000003    19640331           .    I0003       007366    ENTERGY CORP                                                 ETR         29364G103    0000065984     4911      22111      01 
000003    19640331           .    I0003       007435    3M CO                                                        MMM         88579Y101    0000066740     2670      322220     01 
000003    19640331           .    I0003       007585    MOTOROLA SOLUTIONS INC                                       MSI         620076307    0000068505     3663      334220     01 
000003    19640331           .    I0003       007923    NORFOLK SOUTHERN CORP                                        NSC         655844108    0000702165     4011      482111     01 
000003    19640331           .    I0003       007977    XCEL ENERGY INC                                              XEL         98389B100    0000072903     4931      2211       01 
000003    19640331           .    I0003       008099    FIRSTENERGY CORP                                             FE          337932107    0001031296     4911      22111      01 
000003    19640331           .    I0003       008247    PPG INDUSTRIES INC                                           PPG         693506107    0000079879     2851      325510     01 
000003    19640331           .    I0003       008264    PG&E CORP                                                    PCG         69331C108    0001004980     4931      2211       01 
000003    19640331           .    I0003       008272    SEMPRA ENERGY                                                SRE         816851109    0001032208     4931      22111      01 
000003    19640331           .    I0003       008479    PEPSICO INC                                                  PEP         713448108    0000077476     2080      311919     01 
000003    19640331           .    I0003       008530    PFIZER INC                                                   PFE         717081103    0000078003     2834      325412     01 
000003    19640331           .    I0003       008539    EXELON CORP                                                  EXC         30161N101    0001109357     4911      22111      01 
000003    19640331           .    I0003       008543    ALTRIA GROUP INC                                             MO          02209S103    0000764180     2111      312230     01 
000003    19640331           .    I0003       008549    CONOCOPHILLIPS                                               COP         20825C104    0001163165     1311      211111     01 
000003    19640331           .    I0003       008762    PROCTER & GAMBLE CO                                          PG          742718109    0000080424     2840      325611     01 
000003    19640331           .    I0003       008810    PUBLIC SERVICE ENTRP GRP INC                                 PEG         744573106    0000788784     4931      22111      01 
000003    19640331           .    I0003       008972    RAYTHEON CO                                                  RTN         755111507    0001047122     3812      334511     01 
000003    19640331           .    I0003       009203    ROCKWELL AUTOMATION                                          ROK         773903109    0001024478     3620      335314     01 
000003    19640331           .    I0003       009846    EDISON INTERNATIONAL                                         EIX         281020107    0000827052     4911      22111      01 
000003    19640331           .    I0003       009850    SOUTHERN CO                                                  SO          842587107    0000092122     4911      2211       01 
000003    19640331           .    I0003       010499    TEXAS INSTRUMENTS INC                                        TXN         882508104    0000097476     3674      334413     01 
000003    19640331           .    I0003       010867    UNION PACIFIC CORP                                           UNP         907818108    0000100885     4011      482111     01 
000003    19640331           .    I0003       010983    UNITED TECHNOLOGIES CORP                                     UTX         913017109    0000101829     3724      336412     01 
000003    19640331           .    I0003       011456    WEYERHAEUSER CO                                              WY          962166104    0000106535     2400      321        01 
000003    19640331           .    I0003       011465    WHIRLPOOL CORP                                               WHR         963320106    0000106640     3630      3352       01 
000003    19640331           .    I0003       011636    XEROX CORP                                                   XRX         984121608    0000108772     3577      333316     01 
000003    19640331    19840131    I0003       004011    DR PEPPER CO-OLD                                             DOC.3       256129107                   2086                 01 
000003    19640331    19840131    I0003       010649    TRANE CO                                                     TRA.3       892892100    0000099037     3585                 01 
000003    19640331    19840331    I0003       021504    CONE MILLS CORP                                              CJML        206814105    0000023304     2211      313210     01 
000003    19640331    19840430    I0003       007089    MASONITE CORP                                                MNC.3       575379201    0000063049     2400                 01 
000003    19640331    19840531    I0003       005382    GULF CORP                                                    GO.1        402237101    0000731444     2911                 01 
000003    19640331    19840531    I0003       007298    METROMEDIA INC                                               MET.2       591690102    0000065322     4833                 01 
000003    19640331    19840630    I0003       001010    ACF INDUSTRIES HOLDING CORP                                  4165A       00099V004    0000910627     3743      336510     01 
000003    19640331    19840630    I0003       009064    REPUBLIC STEEL CORP                                          3LTVCQ2     760779009                   3312      331111     01 
000003    19640331    19840630    I0003       009266    ROYAL CROWN COS INC                                          RCC.2       780240107    0001086088     2086                 01 
000003    19640331    19840731    I0003       004449    ESMARK INC-OLD                                               ESM.1       296470107                   2013                 01 
000003    19640331    19840930    I0003       003460    CONTINENTAL GROUP INC                                        CCC.6       211452107                   3411                 01 
000003    19640331    19840930    I0003       010197    SUPERIOR OIL CO                                              SOC.3       868273103    0000095559     1311                 01 
000003    19640331    19841031    I0003       006260    JEWEL COS INC                                                JWL.        477196109    0001705260     5411                 01 
000003    19640331    19841031    I0003       009381    ST REGIS CORP                                                SRT.1       793453101                   2621                 01 
000003    19640331    19850331    I0003       011462    HANDY & HARMAN LTD                                           HNH         929248409    0000106618     3420      332510     01 
000003    19640331    19850430    I0003       001528    AMERICAN NATURAL RESOURCES                                   ANR.2       028609105    0000720685     4922                 01 
000003    19640331    19850430    I0003       007162    MCGRAW-EDISON CO                                             MGR.2       580628105    0000064030     3612                 01 
000003    19640331    19850430    I0003       007707    NATIONAL CAN CORP                                            NAC.3       635128101                   3411                 01 
000003    19640331    19850531    I0003       009653    SHELL OIL CO                                                 4108A       822635009    0000089629     1311      211112     01 
000003    19640331    19850831    I0003       007674    NABISCO BRANDS INC                                           NB.2        629525106    0000353001     2000      311919     01 
000003    19640331    19850831    I0003       009560    SEARLE (G.D.) & CO                                           SRL.2       812302107                   2834      325412     01 
000003    19640331    19850831    I0003       010873    UNIROYAL INC                                                 R.1         909160103    0000100968     3011      326211     01 
000003    19640331    19850930    I0003       001040    AMF INC                                                      AMF.2       001688100    0000006091     3949      339920     01 
000003    19640331    19851031    I0003       005055    GENERAL FOODS CORP                                           MO1         369856000    0000040601     2000      311        01 
000003    19640331    19851031    I0003       006828    LOWENSTEIN (M.) CORP                                         LST.1       547779108                   2211      313210     01 
000003    19640331    19851231    I0003       003125    CLUETT PEABODY & CO                                          CLU.2       189486103    0001064974     2300      315        01 
000003    19640331    19860331    I0003       002102    BEATRICE COS INC                                             4708C       074077934    0000785960     2000      311        02 
000003    19640331    19860430    I0003       001623    AMSTED INDUSTRIES                                            4936C       032177107    0000006216     3320      221320     01 
000003    19640331    19860430    I0003       003627    CROWN ZELLERBACH                                             FJ1         228669008                   2621      322121     01 
000003    19640331    19860430    I0003       007739    NATIONAL GYPSUM CO                                           NGCO        636317109    0000910071     3270      327420     02 
000003    19640331    19860531    I0003       008889    RCA CORP                                                     RCA.1       749285102    0000082286     3600      335        01 
000003    19640331    19860630    I0003       006928    MACY (R H) & CO                                              4931C       556139939    0000061300     5311      452110     02 
000003    19640331    19860831    I0003       009947    SPERRY CORP                                                  SY.2        848355103    0000092879     3570      3341       01 
000003    19640331    19860930    I0003       001803    ASSOCIATED DRY GOODS CORP                                    DG.2        045573102    0000007822     5311      452110     01 
000003    19640331    19860930    I0003       004475    EX-CELL-O CORP                                               XLO         300587102                   3714      336399     01 
000003    19640331    19860930    I0003       004920    K-H CORP                                                     KH.1        482461910    0001033782     3714      336322     03 
000003    19640331    19860930    I0003       011266    WALKER (HIRAM) RESOURCES LTD                                 HWR.        931647101                   2080      3121       01 
000003    19640331    19861031    I0003       009359    SAFEWAY INC                                                  SWY         786514208    0000086144     5411      445110     01 
000003    19640331    19861130    I0003       002998    CHICAGO PNEUMATIC TOOL CO                                    CGG.1       167898105    0000019863     3540      333515     01 
000003    19640331    19861231    I0003       001301    ALLIED STORES                                                9174A       019519008                   5311      452110     01 
000003    19640331    19870131    I0003       002827    CELANESE CORP-OLD                                            CZ.1        150843100                   2820      3252       01 
000003    19640331    19870228    I0003       008215    OWENS-ILLINOIS INC                                           OI          690768403    0000812074     3221      327213     02 
000003    19640331    19870430    I0003       009111    REXNORD HOLDINGS INC-OLD                                     FA1         76168T005                   3452      332722     01 
000003    19640331    19870531    I0003       006291    JOY TECHNOLOGIES INC  -CL A                                  JOY.1       481206100    0000812944     3532      333131     02 
000003    19640331    19870731    I0003       001517    AMERICAN MOTORS CORP                                         AMO.1       027627108    0000005496     3711      336111     01 
000003    19640331    19870731    I0003       002322    BURNS INTL SERVICES CORP                                     BOR.1       122374101    0000817945     7381      561612     02 
000003    19640331    19870731    I0003       002661    CAMPBELL RED LAKE MINES                                      CRK.1       134411107                   1040      21222      01 
000003    19640331    19870731    I0003       004021    DOME MINES LTD                                               DM.2        257075101    0000029560     1040      212221     01 
000003    19640331    19870831    I0003       002489    BURLINGTON INDUSTRIES INC                                    3BRLGQ      121693972    0000870213     2200      313210     01 
000003    19640331    19870930    I0003       010320    TAFT BROADCASTING CO                                         TFB.        873635106    0000096167     4833      513120     01 
000003    19640331    19871130    I0003       002110    BE HOLDINGS INC  -CL A                                       5372C       055382931    0000824776     3532      333131     02 
000003    19640331    19880131    I0003       009746    BICOASTAL CORP                                               5573C       088774948    0000090656     3690      3359       02 
000003    19640331    19880131    I0003       010066    STERLING DRUG INC                                            STY.1       859264103    0000094130     2834      325412     01 
000003    19640331    19880331    I0003       001567    TRANE INC                                                    TT.2        892893108    0000836102     3585      333415     02 
000003    19640331    19880430    I0003       004611    MACY'S INC                                                   M           55616P104    0000794367     5311      452111     02 
000003    19640331    19880430    I0003       004672    FIRESTONE TIRE & RUBBER CO                                   FIR.1       318315108                   3011      326211     01 
000003    19640331    19880430    I0003       010082    STEVENS (J.P.) & CO                                          WPM1        860163005                   2211      313210     01 
000003    19640331    19880630    I0003       007495    MOHASCO CORP                                                 MOH.        608030102    0000067412     2510      33712      01 
000003    19640331    19881031    I0003       006318    KAISERTECH LTD                                               5854A       483102000                   3334      331312     01 
000003    19640331    19881031    I0003       006920    MACMILLAN INC                                                MLL.2       554790105    0000061267     2731      511130     01 
000003    19640331    19881130    I0003       001414    PRIMERICA INC                                                PRI         741587109    0001475922     6311      524113     01 
000003    19640331    19881130    I0003       003746    KRAFT GENERAL FOODS                                          MO3         500902002                   2000      311        02 
000003    19640331    19890131    I0003       009113    NABISCO GROUP HOLDINGS CORP                                  NGH.2       62952P102    0000847903     2052      311821     01 
000003    19640331    19890430    I0003       002920    CHAMPION SPARK PLUG                                          CHM.2       158663104    0000019167     3690      335999     01 
000003    19640331    19891215    I0003       003224    COMBUSTION ENGINEERING INC                                   CSP.2       200273100    0000022290     3569      333999     01 
000003    19640331    19901130    I0003       006796    LONE STAR INDUSTRIES                                         LCE         542290408    0000060195     3241      327310     01 
000003    19640331    19901204    I0003       006025    FURNITURE BRANDS INTL INC                                    FBNIQ       360921209    0000050957     2510      33712      01 
000003    19640331    19910109    I0003       008308    PAN AM CORP                                                  3PNAA.      697757102                   4512      481111     01 
000003    19640331    19910506    I0003       010970    USX CORP-CONSOLIDATED                                        MROX.CM     90399Y931                   2911      324110     02 
000003    19640331    19910521    I0003       009965    SQUARE D CO                                                  SQD.1       852206101    0000093128     3613      335313     01 
000003    19640331    19910919    I0003       007648    NCR CORP                                                     NCR         62886E108    0000070866     7370      54151      01 
000003    19640331    19920131    I0003       010816    USG CORP                                                     USG         903293405    0000757011     3270      327420     01 
000003    19640331    19920630    I0003       007515    GENESIS WORLDWIDE INC-OLD                                    GWOW        37184G104    0000067532     3540      333518     01 
000003    19640331    19930630    I0003       008617    PITTSTON CO-CONSOLIDATED                                     PZSM.CM     72599Y937                   4731      488510     01 
000003    19640331    19930731    I0003       008935    RALSTON PURINA-CONSOLIDATED                                  RACM.CM     75199Z931                   2040      3112       01 
000003    19640331    19930930    I0003       007724    QUANTUM CHEMICAL CORP                                        CUE.1       747633105    0000070047     2821      325211     01 
000003    19640331    19931112    I0003       001365    AMAX INC                                                     AMX.2       023127103    0000004363     3334      331312     01 
000003    19640331    19931231    I0003       007658    NL INDUSTRIES                                                NL          629156407    0000072162     3562      332991     02 
000003    19640331    19940331    I0003       004595    FEDDERS CORP                                                 FJCC        313135501    0000744106     3585      333415     01 
000003    19640331    19940630    I0003       005141    GERBER PRODUCTS CO                                           GEB.1       373712108    0000041130     2030      31142      01 
000003    19640331    19940712    I0003       010795    UNITED CONTINENTAL HLDGS INC                                 UAL         902549500    0000100517     4512      481111     01 
000003    19640331    19940926    I0003       001430    AMERICAN CYANAMID CO                                         ACY.1       025321100    0000004829     2800      325        01 
000003    19640331    19940926    I0003       007745    AVATEX CORP                                                  AVATQ       05349F402    0000716644     6799      523999     01 
000003    19640331    19941002    I0003       005109    GENESCO INC                                                  GCO         371532102    0000018498     5661      448210     01 
000003    19640331    19941220    I0003       002316    HEXION INC                                                   0141A       428300107    0000013239     2860      325199     01 
000003    19640331    19950315    I0003       007077    MARTIN MARIETTA CORP                                         ML.3        572900108    0000897599     3760      3364       01 
000003    19640331    19950521    I0003       003091    CLARK EQUIPMENT CO                                           CKL         181396102                   3531      333120     01 
000003    19640331    19950921    I0003       009408    SANTA FE PACIFIC CORP                                        SFX.2       802183103    0000732639     4011      482111     01 
000003    19640331    19951107    I0003       011678    ZENITH ELECTRONICS CORP                                      ZE          989349105    0000109265     3651      334310     01 
000003    19640331    19951126    I0003       002529    CBS INC                                                      CBS.1       124845108    0000018366     4833      513120     01 
000003    19640331    19951212    I0003       009514    SCOTT PAPER CO                                               SPP.3       809877103    0000087949     2621      322121     01 
000003    19640331    19960312    I0003       004603    FEDERAL PAPER BOARD CO                                       FBO         313693103    0000034891     2631      322130     01 
000003    19640331    19960721    I0003       002436    CALERES INC                                                  CAL         129500104    0000014707     3140      316210     01 
000003    19640331    19970618    I0003       008325    PANENERGY CORP                                               PEL.1       697926103    0000351696     4922      486210     01 
000003    19640331    19970805    I0003       004393    TXU GAS CO                                                   TXU2        873170005    0000033015     4923      221210     01 
000003    19640331    19980630    I0003       002159    BENEFICIAL CORP                                              BNL.1       081721102    0000008960     6141      522291     01 
000003    19640331    19980630    I0003       005968    RYERSON HOLDING CORP                                         RYI         78375P107    0001481582     5051      423510     01 
000003    19640331    19980930    I0003       004073    DRESSER INDUSTRIES INC                                       DI.         261597108    0000030099     1382      213112     01 
000003    19640331    19981006    I0003       005087    SPX CORP                                                     SPXC        784635104    0000088205     3585      333415     01 
000003    19640331    19981112    I0003       003022    CHRYSLER CORP                                                C.3         171196108    0000791269     3711      336111     01 
000003    19640331    19981123    I0003       001755    ARMCO INC                                                    AS.         042170100    0000007383     3312      331111     01 
000003    19640331    19990103    I0003       001609    AMOCO CORP                                                   AN.2        031905102    0000093397     2911      324110     01 
000003    19640331    19990103    I0003       011584    FOOT LOCKER INC                                              FL          344849104    0000850209     5661      448210     01 
000003    19640331    19990411    I0003       006701    AEROQUIP-VICKERS INC                                         ANV.1       007869100    0000059198     3490      332912     01 
000003    19640331    19990502    I0003       010855    UNION CAMP CORP                                              UCC.2       905530101    0000100783     2631      322130     01 
000003    19640331    19991025    I0003       009810    SONAT INC                                                    SNT.1       835415100    0000092236     4922      422720     01 
000003    19640331    19991026    I0003       001789    ASARCO INC                                                   AR.2        043413103    0000007649     3330      331411     01 
000003    19640331    19991130    I0003       007475    MOBIL CORP                                                   MOB.2       607059102    0000067182     2911      324110     01 
000003    19640331    19991201    I0003       005693    HONEYWELL INC                                                HON.Z       438506107    0000048305     3822      334512     01 
000003    19640331    20000130    I0003       003419    CONSOLIDATED NATURAL GAS CO                                  D2          209615004    0000023738     4923      221210     01 
000003    19640331    20000130    I0003       004864    FOSTER WHEELER AG                                            FWLT        H27178104    0001130385     1600      2371       01 
000003    19640331    20000417    I0003       001848    ATLANTIC RICHFIELD CO                                        ARC.3       048825103    0000775483     2911      324110     01 
000003    19640331    20000504    I0003       009114    REYNOLDS METALS CO                                           RLM.1       761763101    0000083604     3334      331312     01 
000003    19640331    20000504    I0003       011436    CBS CORP -OLD                                                CBS.2       12490K107    0000106413     4833      513120     01 
000003    19640331    20000604    I0003       007938    NACCO INDUSTRIES  -CL A                                      NC          629579103    0000789933     3634      335210     01 
000003    19640331    20000615    I0003       002847    CENTRAL & SOUTH WEST CORP                                    CSR.1       152357109    0000018540     4911      22111      01 
000003    19640331    20000620    I0003       011288    WARNER-LAMBERT CO                                            WLA         934488107    0000104669     2834      325412     01 
000003    19640331    20000628    I0003       003041    MILACRON INC                                                 MZIAQ       598709301    0000716823     3559      333249     01 
000003    19640331    20000702    I0003       004961    GTE CORP                                                     GTE.1       362320103    0000040858     4813      513310     01 
000003    19640331    20000829    I0003       005301    GREAT ATLANTIC & PAC TEA CO                                  GAPTQ       390064103    0000043300     5411      445110     01 
000003    19640331    20001001    I0003       008214    OWENS CORNING                                                OC          69073F103    0001370946     3290      327993     01 
000003    19640331    20001002    I0003       002562    BESTFOODS                                                    BFO.2       08658U101                   2030      31142      01 
000003    19640331    20001022    I0003       003255    UNICOM CORP                                                  UCM.2       904911104    0000918040     4911      22111      01 
000003    19640331    20001101    I0003       003206    COLUMBIA ENERGY GROUP                                        NI2         197648009    0000022099     4923      221210     01 
000003    19640331    20001116    I0003       001762    ARMSTRONG HOLDINGS INC                                       3ACKH       042384107    0001109304     3089      326199     01 
000003    19640331    20001210    I0003       002189    BETHLEHEM STEEL CORP                                         3BHMSQ      087509105    0000011860     3312      331111     01 
000003    19640331    20001210    I0003       003619    CROWN HOLDINGS INC                                           CCK         228368106    0001219601     3411      332431     01 
000003    19640331    20001210    I0003       005250    GRACE (W R) & CO                                             GRA         38388F108    0001045309     2810      325998     01 
000003    19640331    20001210    I0003       009548    SEAGRAM CO LTD                                               VO.3        811850106    0000088188     3652      512220     01 
000003    19640331    20001211    I0003       008657    PRIMARY PDC INC                                              PRDCQ       731095105    0000079326     3861      333315     01 
000003    19640331    20010206    I0003       010857    UNION CARBIDE CORP                                           DOW2        905581104    0000100790     2860      325199     01 
000003    19640331    20010802    I0003       008852    QUAKER OATS CO                                               OAT.        747402105    0000081371     2040      3112       01 
000003    19640331    20010806    I0003       010581    TIMKEN CO                                                    TKR         887389104    0000098362     3562      332991     01 
000003    19640331    20010829    I0003       008151    ONEOK INC                                                    OKE         682680103    0001039684     4923      221210     01 
000003    19640331    20011009    I0003       010482    TEXACO INC                                                   TX.2        881694103    0000097349     2911      324110     01 
000003    19640331    20011129    I0003       006127    ENRON CORP                                                   ENRNQ       293561106    0001024401     5172      422720     01 
000003    19640331    20011216    I0003       005686    HOMESTAKE MINING                                             HM          437614100    0000743872     1040      212221     01 
000003    19640331    20020101    I0003       004510    FMC CORP                                                     FMC         302491303    0000037785     2870      325320     01 
000003    19640331    20020116    I0003       006307    SEARS HOLDINGS CORP                                          SHLD        482584109    0001310067     5311      452111     01 
000003    19640331    20020129    I0003       007180    MEAD CORP                                                    MEA.1       582834107                   2621      322121     01 
000003    19640331    20020131    I0003       007892    NIAGARA MOHAWK HOLDINGS INC                                  NMK         653520106    0001079182     4931      22111      01 
000003    19640331    20020721    I0003       001243    ALCAN INC                                                    AL.1        013716105    0000004285     3350      331319     01 
000003    19640331    20020721    I0003       005905    INCO LTD                                                     INCLF       453258402    0000049996     3330      331419     01 
000003    19640331    20020721    I0003       009267    ROYAL DUTCH PETROLEUM NV                                     RDPL        780257804    0000085486     2911      324110     91 
000003    19640331    20020721    I0003       010846    UNILEVER NV                                                  UN          904784709    0000110390     2840      3256       90 
000003    19640331    20021211    I0003       010301    TRW INC                                                      TRW.1       872649108    0000100030     3714      336330     01 
000003    19640331    20030313    I0003       001045    AMERICAN AIRLINES GROUP INC                                  AAL         001765106    0000006201     4512      481111     01 
000003    19640331    20030330    I0003       005735    HSBC FINANCE CORP                                            HBC1        441815107    0000354964     6141      522291     01 
000003    19640331    20030415    I0003       007536    PHARMACIA CORP                                               PHA.1       71713U102    0000067686     2834      325412     01 
000003    19640331    20041202    I0003       011535    WINN-DIXIE STORES INC                                        WINN        974280109    0000107681     5411      445110     01 
000003    19640331    20041219    I0003       003580    CRANE CO                                                     CR          224399105    0000025445     3490      332912     01 
000003    19640331    20050327    I0003       009563    SEARS ROEBUCK & CO                                           S.1         812387108    0000319256     5311      452111     01 
000003    19640331    20050810    I0003       011038    UNOCAL CORP                                                  UCL         915289102    0000716039     1311      211111     01 
000003    19640331    20050828    I0003       007127    MAY DEPARTMENT STORES CO                                     MAY.2       577778103    0000063416     5311      452111     01 
000003    19640331    20051002    I0003       005169    GILLETTE CO                                                  G.1         375766102    0000041499     3420      332211     01 
000003    19640331    20051120    I0003       001581    AT&T CORP                                                    T.2         001957505    0000005907     4813      517110     01 
000003    19640331    20051219    I0003       005134    GEORGIA-PACIFIC CORP                                         GP.1        373298108    0000041077     2600      322121     01 
000003    19640331    20060302    I0003       003734    DANA INC                                                     DAN         235811106    0000026780     3714      336390     01 
000003    19640331    20060402    I0003       007139    MAYTAG CORP                                                  MYG.1       578592107    0000063541     3630      335224     01 
000003    19640331    20061219    I0003       006081    NAVISTAR INTERNATIONAL CORP                                  NAV         63934E108    0000808450     3711      336120     01 
000003    19640331    20070221    I0003       008470    PEOPLES ENERGY CORP                                          PGL.1       711030106    0000077385     4924      221210     01 
000003    19640331    20070319    I0003       008536    PHELPS DODGE CORP                                            PD          717265102    0000078066     3330      331411     01 
000003    19640331    20071009    I0003       010507    ENERGY FUTURE HOLDINGS CORP                                  0033A       873168108    0001023291     4911      2211       01 
000003    19640331    20081006    I0003       011609    WRIGLEY (WM) JR CO                                           WWY         982526105    0000108601     2060      311340     01 
000003    19640331    20081110    I0003       002504    UNISYS CORP                                                  UIS         909214306    0000746838     7373      541512     01 
000003    19640331    20081113    I0003       005589    HERCULES INC                                                 HPC         427056106    0000046989     2890      325998     01 
000003    19640331    20090602    I0003       005073    GENERAL MOTORS CO                                            GM          62010A105    0001467858     3711      33611      01 
000003    19640331    20090630    I0003       005959    INGERSOLL-RAND PLC                                           IR          G47791101    0001466258     3560      333912     01 
000003    19640331    20090908    I0003       003497    COOPER INDUSTRIES PLC                                        CBE         G24140108    0001141982     3640      3351       01 
000003    19640331    20091015    I0003       001478    WYETH                                                        WYE         983024100    0000005187     2834      325412     01 
000003    19640331    20091103    I0003       009459    SCHERING-PLOUGH                                              SGP         806605101                   2834      325412     01 
000003    19640331    20100215    I0003       002490    BURLINGTON NORTHERN SANTA FE                                 BRK3        12189T104    0000934612     4011      482111     01 
000003    19640331    20101219    I0003       004194    EASTMAN KODAK CO                                             KODK        277461109    0000031235     3577      333316     01 
000003    19640331    20111031    I0003       005860    ITT INC                                                      ITT         45073V108    0000216228     3561      333911     01 
000003    19640331    20120313    I0003       001995    CONSTELLATION ENERGY GRP INC                                 CEG         210371100    0001004440     4931      22111      01 
000003    19640331    20120730    I0003       005229    GOODRICH CORP                                                GR          382388106    0000042542     3728      336413     01 
000003    19640331    20130606    I0003       005568    KRAFT HEINZ CO                                               KHC         423074103    0001637459     2030      31142      01 
000003    19640331    20131201    I0003       008446    PENNEY (J C) CO                                              JCP         708160106    0001166126     5311      452111     01 
000003    19640331    20140430    I0003       001408    BEAM INC                                                     BEAM        073730103    0000789073     2085      312140     01 
000003    19640331    20150701    I0003       011446    MEADWESTVACO CORP                                            MWV         583334107    0001159297     2631      322130     01 
000003    19640331    20161031    I0003       001356    ALCOA INC                                                    AA.3        013817507                   3720      3364       01 
000003    19640331    20170228    I0003       008606    PITNEY BOWES INC                                             PBI         724479100    0000078814     3579      333318     01 
000003    19640331    20170704    I0003       001976    BAKER HUGHES INC                                             BHI         057224107    0000808362     1381      213111     01 
000003    19640630           .    I0003       009667    SHERWIN-WILLIAMS CO                                          SHW         824348106    0000089800     2851      325510     01 
000003    19640630    20010115    I0003       010576    TIME WARNER INC-OLD                                          TWX.1       887315109    0001021387     7812      512110     01 
000003    19640930    19871130    I0003       011274    WALTER (JIM) CORP                                            JWC.        933169104                   3086      326140     01 
000003    19640930    19980129    I0003       005824    PEPSIAMERICAS INC                                            PAS         71343P200    0001084230     2086      312111     01 
000003    19650331           .    I0003       003650    CUMMINS INC                                                  CMI         231021106    0000026172     3510      333618     01 
000003    19650331           .    I0003       004321    EMERSON ELECTRIC CO                                          EMR         291011104    0000032604     3600      335        01 
000003    19650331           .    I0003       009465    SCHLUMBERGER LTD                                             SLB         806857108    0000087347     1389      213112     01 
000003    19650331    19840930    I0003       006276    JONATHAN LOGAN INC                                           JOL.        479898108                   2330                 01 
000003    19650630    19970701    I0003       005321    GREAT WESTERN FINANCIAL                                      GWF.        391442100    0000043512     6035      522120     01 
000003    19651231    19840930    I0003       001596    AMERIFIN CORP                                                AFN.3       030901102    0000046741     6799                 01 
000003    19651231    19970803    I0003       007155    MCDONNELL DOUGLAS CORP                                       MD.1        580169100    0000063917     3721      336411     01 
000003    19651231    20000612    I0003       010580    TIMES MIRROR CO  -SER A                                      TMC         887364107    0000925260     2711      511110     01 
000003    19660630    19960905    I0003       007099    VARITY CORP                                                  VAT         92224R602                   3714      3363       01 
000003    19660930    20001101    I0003       004189    EASTERN ENTERPRISES                                          EFU.1       27637F100    0000311259     4924      221210     01 
000003    19661231    19890331    I0003       010490    TEXAS EASTERN CORP                                           PEL4        882387103    0000097430     4922      486210     02 
000003    19661231    19960211    I0003       002729    CAPITAL CITIES/ABC INC                                       CCB.2       139859102    0000017109     4833      513120     01 
000003    19670331    20071115    I0003       010391    TEKTRONIX INC                                                TEK.1       879131100    0000096879     3825      334515     01 
000003    19670630    19851031    I0003       009104    REVLON INC  -OLD                                             4640A       76199X009                   2844      325620     01 
000003    19670630    19870131    I0003       002987    CHESEBROUGH-POND'S INC                                       CBM.4       165339102                   2800      325        01 
000003    19670630    19940415    I0003       005361    GRUMMAN CORP                                                 GQ.1        400181103    0000044279     3721      336411     01 
000003    19670630    19990404    I0003       001608    AMP INC                                                      AMP.2       031897101    0000006164     3678      334417     01 
000003    19670630    20150322    I0003       001920    AVON PRODUCTS                                                AVP         054303102    0000008868     2844      325620     01 
000003    19670930           .    I0003       002574    CSX CORP                                                     CSX         126408103    0000277948     4011      482111     01 
000003    19670930    19840731    I0003       004521    FABERGE INC                                                  FBG.        30299Y102    0000034143     2844                 01 
000003    19670930    19850131    I0003       009320    SFN COS INC                                                  SFN.        784150104                   2731                 01 
000003    19670930    19850630    I0003       003568    COX COMMUNICATIONS INC -OLD                                  COX.        224043109                   4841      513220     01 
000003    19670930    19901130    I0003       006861    MCA INC                                                      MCA.1       552653107                   7812      512110     01 
000003    19670930    20001211    I0003       009963    SPRINGS INDUSTRIES  -CL A                                    SMI.1       851783100    0000093102     2211      313210     01 
000003    19671231    19840131    I0003       005148    GETTY OIL CO                                                 GET.2       374280105    0000041234     2911                 01 
000003    19680331    19920702    I0003       001098    ACME-CLEVELAND CORP                                          AMT.1       004626107    0000869676     3661      334210     01 
000003    19680331    19971127    I0003       008537    CITIGROUP GLOBAL MKTS HLDGS                                  C2          173073008    0000200245     6211      523110     01 
000003    19680331    20050818    I0003       003851    DELTA AIR LINES INC                                          DAL         247361108    0000027904     4512      481111     01 
000003    19680630    19911031    I0003       005468    HARCOURT BRACE JOVANOVICH                                    HBJ         411631104    0000045529     2731      511130     01 
000003    19680630    19920630    I0003       002433    BNS HOLDING CO                                               BNSSA       055966402    0000014637     3713      336211     01 
000003    19680630    20010402    I0003       002393    BRIGGS & STRATTON                                            BGG         109043109    0000014195     3510      333618     01 
000003    19680630    20110103    I0003       007260    MEREDITH CORP                                                MDP         589433101    0000065011     2721      511120     01 
000003    19680930    19841130    I0003       014097    ARAMARK CORP  -CL B                                          4774B       002034932    0000757523     5812      722310     01 
000003    19680930    19880331    I0003       009234    ROPER CORP                                                   ROP.1       776678104    0000084966     3524      333112     01 
000003    19680930    19890731    I0003       001062    ASA GOLD AND PRECIOUS METALS                                 ASA         G3156P103    0001230869     6799      523999     01 
000003    19690331           .    I0003       003121    CLOROX CO/DE                                                 CLX         189054109    0000021076     2842      325612     01 
000003    19690331           .    I0003       005071    GENERAL MILLS INC                                            GIS         370334104    0000040704     2040      311230     01 
000003    19690331    19971022    I0003       006819    LOUISIANA LAND & EXPLORATION                                 LLX.        546268103    0000060512     1311      211111     01 
000003    19690331    20121004    I0003       010156    SUNOCO INC                                                   SUN.1       86764P109    0000095304     2911      324110     01 
000003    19690630           .    I0003       007881    NEWMONT MINING CORP                                          NEM         651639106    0001164727     1040      212221     01 
000003    19690630    19851231    I0003       001409    AMERICAN BROADCASTING                                        ABC.2       024735102    0000897584     4833      513120     01 
000003    19690630    20010401    I0003       003480    CERIDIAN CORP                                                4622B       156779100    0001124887     8721      541214     01 
000003    19690930    19880930    I0003       005245    GOULD INC                                                    GLD.3       383492105    0000042765     3571      334111     01 
000003    19700630           .    I0003       007154    MCDONALD'S CORP                                              MCD         580135101    0000063908     5812      722513     01 
000003    19700630    19840331    I0003       004470    EVANS PRODUCTS CO                                            4599B       299209106                   5211      444190     01 
000003    19700630    19841231    I0003       009581    SEDCO INC                                                    SED.1       815246103    0000088686     1381                 01 
000003    19700630    19851231    I0003       005187    GLOBALSANTAFE CORP                                           GSF.2       G3930E101    0001038914     1381      213111     02 
000003    19700630    19890228    I0003       006351    SUNAMERICA INC                                               SAI.1       866930100    0000054727     6311      524113     01 
000003    19700630    19900131    I0003       005662    HOLIDAY CORP                                                 HIA.1       435071105    0000764898     7011      721110     01 
000003    19700630    19930930    I0003       007063    HOST HOTELS & RESORTS INC                                    HST         44107P104    0001070750     6798      531120     01 
000003    19700630    20000618    I0003       002917    CHAMPION INTERNATIONAL CORP                                  CHA.3       158525105    0000019150     2621      32212      01 
000003    19700630    20010708    I0003       008692    POTLATCH CORP                                                PCH         737630103    0001338749     2421      321113     01 
000003    19700630    20071024    I0003       005643    HILTON WORLDWIDE HOLDINGS                                    HLT         432848109    0001585689     7011      721110     01 
000003    19700630    20080622    I0003       002290    OFFICEMAX INC                                                OMX         67622P101    0000012978     5110      424120     01 
000003    19701231           .    I0003       006730    LILLY (ELI) & CO                                             LLY         532457108    0000059478     2834      325412     01 
000003    19710331    20061116    I0003       001239    ALBERTO-CULVER CO                                            ACV.1       013078100    0001368457     2844      325620     01 
000003    19710930    20030819    I0003       007152    MCDERMOTT INTL INC                                           MDR         580037109    0000708819     3730      336611     01 
000003    19711231    19891220    I0003       008937    RAMADA INC                                                   RAM.3       751328105    0000081887     7990      713        01 
000003    19720331    19890731    I0003       008974    R & B FALCON CORP                                            FLC.2       74912E945                   1381      213111     01 
000003    19720331    19930712    I0003       006038    INTERLAKE CORP                                               IK          458702107    0000790929     2540      337215     01 
000003    19720930           .    I0003       002086    BAXTER INTERNATIONAL INC                                     BAX         071813109    0000010456     2836      325414     01 
000003    19720930           .    I0003       002111    BECTON DICKINSON & CO                                        BDX         075887109    0000010795     3841      339112     01 
000003    19720930    19840831    I0003       007413    MILTON BRADLEY CO                                            MB.1        601753106    0000013769     3944                 01 
000003    19720930    19841231    I0003       003869    DENNY'S INC                                                  DEN.1       248703100                   5812      999990     01 
000003    19720930    19851031    I0003       001481    AMERICAN HOSPITAL SUPPLY                                     AHS.1       026681106    0000215073     3841      339112     01 
000003    19730331    19960307    I0003       005458    HANDLEMAN CO                                                 HDLM        410252100    0000314727     9995      999990     01 
000003    19730331    19960930    I0003       008202    OUTBOARD MARINE CORP                                         9975B       690020102    0000075149     3510      333618     01 
000003    19730331    20080622    I0003       002444    BRUNSWICK CORP                                               BC          117043109    0000014930     3510      333618     01 
000003    19730331    20110630    I0003       010332    RS LEGACY CORP                                               RSHCQ       74979E101    0000096289     5731      443142     01 
000003    19730630           .    I0003       006266    JOHNSON & JOHNSON                                            JNJ         478160104    0000200406     2834      325412     01 
000003    19730630    19870331    I0003       005775    HUGHES TOOL CO                                               HT.         444492102    0000049032     3533      333132     01 
000003    19730630    19980930    I0003       001194    AHMANSON (H F) & CO                                          AHM.1       008677106    0000771667     6035      522120     01 
000003    19730930    19910131    I0003       002796    BROADWAY STORES INC                                          BWY.1       111572103    0000750217     5311      452110     01 
000003    19731231           .    I0003       005125    GENUINE PARTS CO                                             GPC         372460105    0000040987     5013      423120     01 
000003    19731231    19980709    I0003       004204    ECHLIN INC                                                   ECH.1       278749106    0000031348     3714      336340     01 
000003    19740630    19880930    I0003       009002    REDMAN INDUSTRIES INC                                        RDMN        757642103    0000082666     2451      321991     01 
000003    19740630    19910331    I0003       010950    U S HOME CORP                                                UH          911920106    0000101640     1531      233210     01 
000003    19740630    19950730    I0003       009761    SKYLINE CORP                                                 SKY         830830105    0000090896     2451      321991     01 
000003    19740630    20000130    I0003       004768    FLEETWOOD ENTERPRISES INC                                    FLTWQ       339099103    0000314132     3716      336213     01 
000003    19741231           .    I0003       005606    HP INC                                                       HPQ         40434L105    0000047217     3570      33411      01 
000003    19741231    20040802    I0003       010540    THOMAS & BETTS CORP                                          TNB         884315102    0000097854     3640      335931     01 
000003    19741231    20061109    I0003       006821    LOUISIANA-PACIFIC CORP                                       LPX         546347105    0000060519     2400      321219     01 
000003    19741231    20081123    I0003       008488    APPLIED BIOSYSTEMS INC                                       ABI.3       038149100    0000077551     2835      325413     01 
000003    19750331           .    I0003       011506    WILLIAMS COS INC                                             WMB         969457100    0000107263     4922      486210     01 
000003    19750331    19850930    I0003       002122    BEKER INDUSTRIES                                             BKI910      077266104                   2870      3253       01 
000003    19750331    19910430    I0003       010608    TONKA CORP                                                   TKA.        890278104    0000098651     3944      339932     01 
000003    19750331    19951022    I0003       004719    CHEMFIRST INC                                                CEM.2       16361A106    0001026601     2860      325110     01 
000003    19750331    20001017    I0003       006096    MALLINCKRODT INC                                             MKG         561232109    0000051396     3842      339113     01 
000003    19750630           .    I0003       002044    BARD (C.R.) INC                                              BCR         067383109    0000009892     3841      339112     01 
000003    19750930    19850930    I0003       008407    PEABODY INTERNATIONAL CORP                                   PBD.1       704562107    0000076812     8711      541330     01 
000003    19750930    19990801    I0003       002439    BROWNING-FERRIS INDS                                         BFI.        115885105    0000014827     4953      562111     01 
000003    19751231    19860430    I0003       004207    ECKERD CORP                                                  ECK.1       278763107    0000031364     5912      446110     02 
000003    19751231    19861130    I0003       013961    REVCO D.S. INC                                               RXR.1       761339100    0000083496     5912      446110     01 
000003    19751231    19890731    I0003       011284    WARNER COMMUNICATIONS INC                                    WCI.1       934436106    0000104650     3652      334612     01 
000003    19751231    19980611    I0003       003955    DIGITAL EQUIPMENT                                            DEC.1       253849103    0000028887     3570      3341       01 
000003    19751231    20000726    I0003       009155    RITE AID CORP                                                RAD         767754104    0000084129     5912      446110     01 
000003    19751231    20060627    I0003       006475    KNIGHT-RIDDER INC                                            KRI         499040103    0000205520     2711      511110     01 
000003    19751231    20170601    I0003       004988    TEGNA INC                                                    TGNA        87901J105    0000039899     4833      515120     01 
000003    19760331           .    I0003       006078    INTL FLAVORS & FRAGRANCES                                    IFF         459506101    0000051253     2860      325199     01 
000003    19760331    19841031    I0003       002272    BLUE BELL INC                                                BBL.1       095293106    0000012721     2320                 01 
000003    19760331    19880531    I0003       006834    LUCKY STORES INC                                             LKS         549577104    0001704899     5411      445120     01 
000003    19760331    19890630    I0003       007672    NORTHWEST AIRLINES CORP                                      NWA         667280101    0001058033     4512      481111     01 
000003    19760331    20100314    I0003       002255    BLACK & DECKER CORP                                          BDK         091797100    0000012355     3540      333991     01 
000003    19760630           .    I0003       001177    AETNA INC                                                    AET         00817Y108    0001122304     6324      524114     01 
000003    19760630           .    I0003       001447    AMERICAN EXPRESS CO                                          AXP         025816109    0000004962     6141      522210     01 
000003    19760630           .    I0003       002547    CIGNA CORP                                                   CI          125509109    0000701221     6324      524114     01 
000003    19760630           .    I0003       002968    JPMORGAN CHASE & CO                                          JPM         46625H100    0000019617     6020      522110     01 
000003    19760630           .    I0003       003505    MOLSON COORS BREWING CO                                      TAP         60871R209    0000024545     2082      312120     01 
000003    19760630           .    I0003       003980    DISNEY (WALT) CO                                             DIS         254687106    0001001039     4888      515120     01 
000003    19760630           .    I0003       004093    DUKE ENERGY CORP                                             DUK         26441C204    0001326160     4931      2211       01 
000003    19760630           .    I0003       004517    NEXTERA ENERGY INC                                           NEE         65339F101    0000753308     4911      22111      01 
000003    19760630           .    I0003       006742    LINCOLN NATIONAL CORP                                        LNC         534187109    0000059558     6311      524113     01 
000003    19760630           .    I0003       007647    BANK OF AMERICA CORP                                         BAC         060505104    0000070858     6020      522110     01 
000003    19760630           .    I0003       008007    WELLS FARGO & CO                                             WFC         949746101    0000072971     6020      522110     01 
000003    19760630    19840930    I0003       003463    CONTINENTAL BANK CORP                                        CBK.2       211113105    0000024058     6020      522110     01 
000003    19760630    19850430    I0003       008252    PABST BREWING CO                                             PABT        693715203    0000075357     2082      422810     01 
000003    19760630    19870331    I0003       004732    FIRST PENNSYLVANIA CORP                                      FPA.        336072103    0000036810     6020      522110     01 
000003    19760630    19870331    I0003       006058    INTERFIRST CORP                                              IFC.1       458916103    0000275109     6020      522110     01 
000003    19760630    19880531    I0003       015448    DUKE ENERGY INDIANA INC                                      CIN3        263901001    0000081020     4911      221111     01 
000003    19760630    19890331    I0003       004323    EMERY AIR FREIGHT CORP                                       EAF         291101103    0000032626     4513      492110     01 
000003    19760630    19920101    I0003       007003    MANUFACTURERS HANOVER CORP                                   MHC.1       564809101    0000062119     6020      522110     01 
000003    19760630    19931130    I0003       010705    TRAVELERS CORP                                               TIC.1       894180108    0000099429     6331      524126     01 
000003    19760630    19940228    I0003       002558    CNA FINANCIAL CORP                                           CNA         126117100    0000021175     6331      524126     01 
000003    19760630    19950509    I0003       003459    CONTINENTAL CORP                                             CIC.3       211327101    0000024011     6331      524126     01 
000003    19760630    19951130    I0003       004689    FIRST CHICAGO CORP                                           FNB.        319455101    0000036161     6020      522110     01 
000003    19760630    19960331    I0003       002943    CHASE MANHATTAN CORP  -OLD                                   CMB.1       161610100    0000019489     6020      522110     01 
000003    19760630    19960331    I0003       004710    FIRST INTERSTATE BNCP                                        I.1         320548100    0000105982     6020      522110     01 
000003    19760630    19961103    I0003       011649    YRC WORLDWIDE INC                                            YRCW        984249607    0000716006     4213      484122     01 
000003    19760630    19961202    I0003       003416    CON-WAY INC                                                  CNW         205944101    0000023675     4210      492110     01 
000003    19760630    19970610    I0003       065351    PROVIDIAN CORP                                               PVN.2       744061102    0000017206     6311      524113     01 
000003    19760630    19980127    I0003       009168    CALIBER SYSTEMS INC                                          CBB.1       129894101    0000701708     4210      492110     01 
000003    19760630    19980426    I0003       010815    USF&G CORP                                                   FG.1        903290104    0000354396     6331      524130     01 
000003    19760630    19980930    I0003       002024    BANKAMERICA CORP-OLD                                         BAC.Z.      066050105                   6020      522110     01 
000003    19760630    19981007    I0003       003066    CITICORP                                                     3614B       17399Z931    0000020405     6020      522110     01 
000003    19760630    19990603    I0003       002029    BANKERS TRUST CORP                                           BT.2        066365107    0000009749     6020      523991     01 
000003    19760630    19990930    I0003       002014    BANKBOSTON CORP                                              BKB.2       06605R106    0000036672     6020      522110     01 
000003    19760630    20010101    I0003       007562    MORGAN (J P) & CO                                            JPM.Z       616880100    0000068100     6020      522110     01 
000003    19760630    20010829    I0003       001465    AMERICAN GENERAL CORP                                        AGC.1       026351106    0000005103     6311      524113     01 
000003    19760630    20040401    I0003       009380    ST PAUL COS                                                  SPC.2       79299X952                   6331      524126     01 
000003    19760630    20060402    I0003       006241    JEFFERSON-PILOT CORP                                         JP.1        475070108    0000053347     6311      524113     01 
000003    19760630    20070701    I0003       007238    MELLON FINANCIAL CORP                                        MEL.3       58551A108    0000064782     6020      5239       01 
000003    19760630    20080922    I0003       009351    SAFECO CORP                                                  SAF         786429100    0000086104     6331      524126     01 
000003    19760630    20081118    I0003       001663    ANHEUSER-BUSCH COS INC                                       BUD.2       035229103    0000310569     2082      312120     01 
000003    19760630    20160118    I0003       003024    CHUBB CORP                                                   CB.1        171232101    0000020171     6331      524126     01 
000003    19760930    19890731    I0003       005871    IDEAL BASIC INDUSTRIES INC                                   IDL.1       451542104    0000049670     3241      327310     01 
000003    19761231           .    I0003       003813    TARGET CORP                                                  TGT         87612E106    0000027419     5331      452990     01 
000003    19761231           .    I0003       006008    INTEL CORP                                                   INTC        458140100    0000050863     3674      334413     01 
000003    19761231    19930630    I0003       011440    WESTMORELAND COAL CO                                         WLB         960878106    0000106455     1220      212111     01 
000003    19761231    20110925    I0003       007772    NATIONAL SEMICONDUCTOR CORP                                  NSM.2       637640103    0000070530     3674      334413     01 
000003    19770331    20090818    I0003       002845    CENTEX CORP                                                  CTX.2       152312104    0000018532     1531      236117     01 
000003    19770630    19841231    I0003       002775    CARNATION CO                                                 CMK.2       143483105    0000017728     2000                 01 
000003    19770630    19870630    I0003       001308    ALLIS-CHALMERS ENERGY INC                                    ALY         019645506    0000003982     1381      213111     02 
000003    19770630    19881231    I0003       008585    PILLSBURY CO                                                 5841A       721510006    0000078581     2000      311        01 
000003    19771231    19890228    I0003       003030    CHURCH'S FRIED CHICKEN INC                                   CHU.1       171583107                   5812      722211     01 
000003    19780331    19840131    I0003       001620    AMSTAR CORP                                                  4072A       032173007    0000807711     3540      3335       01 
000003    19780630    19851130    I0003       007276    MESA INC                                                     MXP.        590655106    0000877930     1311      211111     02 
000003    19780630    19890331    I0003       011379    WEST POINT-PEPPERELL                                         WPM.1       955465109    0000105846     2211      313210     01 
000003    19780630    20071213    I0003       004062    DOW JONES & CO INC                                           DJ          260561105    0000029924     2711      511110     01 
000003    19780930    20141204    I0003       002154    BEMIS CO INC                                                 BMS         081437105    0000011199     2670      322220     01 
000003    19781231           .    I0003       010519    TEXTRON INC                                                  TXT         883203101    0000217346     3721      336411     01 
000003    19781231    19850630    I0003       007992    NORTHWEST INDUSTRIES                                         NWT         667528103                   2250      3151       01 
000003    19781231    19931031    I0003       005378    PARAMOUNT COMMUNICATIONS INC                                 PCI.3       699216107    0000044482     7812      512110     01 
000003    19781231    19940228    I0003       006765    LITTON INDUSTRIES INC                                        LIT.1       538021106    0000059880     3730      336611     01 
000003    19781231    19991104    I0003       010443    TENNECO INC                                                  TEN         880349105    0001024725     3714      336390     01 
000003    19781231    20150701    I0003       010405    ALLEGHENY TECHNOLOGIES INC                                   ATI         01741R102    0001018963     3350      331491     01 
000003    19790331    19890228    I0003       005718    HCA HOSP CP OF AMER  -CL A                                   HCA.1       40499V931    0000846489     8062      622110     01 
000003    19790331    19890630    I0003       009775    SMITHKLINE BECKMAN CORP                                      SKB         832377105    0000852138     2834      325412     01 
000003    19790331    19890930    I0003       021375    AMERICAN MEDICAL HOLDINGS                                    AMI.1       027428101    0000861439     8062      622110     01 
000003    19790331    19930831    I0003       005776    GALEN HEALTH CARE INC                                        GHC.1       363233107    0000895441     8062      622110     01 
000003    19790331    19990721    I0003       010669    TRANSAMERICA CORP                                            TA.1        893485102    0000099189     6311      524113     01 
000003    19790331    20160417    I0003       007750    TENET HEALTHCARE CORP                                        THC         88033G407    0000070318     8062      622110     01 
000003    19790630           .    I0003       011060    VF CORP                                                      VFC         918204108    0000103379     2320      315220     01 
000003    19790630    19850831    I0003       016476    LEVI STRAUSS & CO                                            6206B       52736R938    0000094845     2300      315220     01 
000003    19790630    19950529    I0003       005505    HARTMARX CORP                                                HTMXQ       417119104    0000723371     2300      315220     01 
000003    19790930    19850331    I0003       010039    STAUFFER CHEMICAL CO                                         STF.        857721104    0000093813     2810                 01 
000003    19790930    19850831    I0003       009705    SIGNAL COS                                                   SGN.1       826622102                   3724      336412     01 
000003    19790930    19990623    I0003       001573    AMERICAN STORES CO                                           ASC.1       030096101    0000090811     5411      445110     01 
000003    19791231           .    I0003       011264    WALGREENS BOOTS ALLIANCE INC                                 WBA         931427108    0001618921     5912      446110     01 
000003    19791231    20001002    I0003       004094    DUN & BRADSTREET CORP                                        DNB         26483E100    0001115222     7323      561450     01 
000003    19800331           .    I0003       001487    AMERICAN INTERNATIONAL GROUP                                 AIG         026874784    0000005272     6331      524126     01 
000003    19800331           .    I0003       004818    FLUOR CORP                                                   FLR         343412102    0001124198     1600      237990     01 
000003    19800630    19860331    I0003       006878    MGM UA ENTERTAINMENT CO                                      MGM.1       553013103                   7812      512110     01 
000003    19800630    19991107    I0003       005492    HARRIS CORP                                                  HRS         413875105    0000202058     7370      518210     01 
000003    19800630    20000402    I0003       011040    PHARMACIA & UPJOHN INC                                       PNU.1       716941109    0000949573     2834      325412     01 
000003    19800930    19920731    I0003       011278    WANG LABS INC                                                WANG        933696205    0000104519     7372      511210     01 
000003    19801231           .    I0003       004598    FEDEX CORP                                                   FDX         31428X106    0001048911     4513      492110     01 
000003    19801231           .    I0003       008253    PACCAR INC                                                   PCAR        693718108    0000075362     3711      336120     01 
000003    19801231    19840131    I0003       005816    HYSTER CO                                                    HYST        449168103    0000049525     3537                 01 
000003    19801231    19841031    I0003       009226    ROLM CORP                                                    RM.1        775784101    0000084848     3571                 01 
000003    19801231    19890131    I0003       010571    TIGER INTERNATIONAL                                          6068B       886735109    0000225939     4512      481111     01 
000003    19801231    19950702    I0003       006856    M/A-COM INC                                                  MAI.1       552618100    0000065771     3679      334419     01 
000003    19801231    20020721    I0003       007980    NORTEL NETWORKS CORP                                         NRTLQ       656568508    0000072911     9995      999990     01 
000003    19810331           .    I0003       001891    AUTOMATIC DATA PROCESSING                                    ADP         053015103    0000008670     7374      518210     01 
000003    19810331    20060226    I0003       009483    SCIENTIFIC-ATLANTA INC                                       SFA.1       808655104    0000087777     3663      334220     01 
000003    19810630           .    I0003       005256    GRAINGER (W W) INC                                           GWW         384802104    0000277135     5000      42         01 
000003    19810630           .    I0003       007085    MASCO CORP                                                   MAS         574599106    0000062996     3430      332913     01 
000003    19810630    19840430    I0003       010790    TYMSHARE INC                                                 TYM.1       902384106    0000100465     7374                 01 
000003    19810630    19840930    I0003       005074    ELECTRONIC DATA SYSTEMS CORP                                 EDS.        285661104    0001007456     7370      541513     01 
000003    19810630    19860131    I0003       010503    TEXAS OIL & GAS CORP                                         TXO         882593106    0000097509     4922      486210     01 
000003    19810630    19910331    I0003       003782    CATTLESALE CO                                                CTLE.       26779T100    0000205239     5961      454112     01 
000003    19810630    19991012    I0003       003760    DATA GENERAL CORP                                            DGN.        237688106    0000026999     3570      3341       01 
000003    19810630    20151130    I0003       003336    DXC TECHNOLOGY COMPANY                                       DXC         23355L106    0001688568     7370      541512     01 
000003    19810729           .    I0003       001722    ARCHER-DANIELS-MIDLAND CO                                    ADM         039483102    0000007084     2070      31122      01 
000003    19810812    19980716    I0003       011306    WASTE MANAGEMENT INC-OLD                                     WMX         94106K101    0000104938     4953      562111     01 
000003    19810930    19890930    I0003       009967    SQUIBB CORP                                                  SQB         852245109    0000093146     2834      325412     01 
000003    19810930    20010627    I0003       005038    HARCOURT GENERAL INC                                         H.2         41163G101    0000040493     2731      511130     01 
000003    19810930    20120628    I0003       009411    HILLSHIRE BRANDS CO                                          HSH         432589109    0000023666     2013      311612     01 
000003    19811231    19841031    I0003       010097    STORAGE TECHNOLOGY CP                                        STK.1       862111200    0000094673     3572      334112     02 
000003    19811231    19870228    I0003       006319    KAISER CEMENT CORP                                           KCC.1       483044103    0000054295     3241      327310     01 
000003    19811231    19870630    I0003       010001    STANDARD OIL CO                                              SRD         853734101    0000093419     2911      324110     01 
000003    19820331           .    I0003       007116    MATTEL INC                                                   MAT         577081102    0000063276     3942      339930     01 
000003    19820331    19860430    I0003       011466    WHITE CONSOLIDATED INDS INC                                  WSW         963626106    0000106690     3630      3352       01 
000003    19820331    19880131    I0003       011396    WESTERN CO OF NO AMER                                        WSN.        958043408    0000106015     1389      213112     02 
000003    19820331    19951219    I0003       011691    ZURN INDUSTRIES INC                                          ZRN         989824107    0000109446     3430      332913     01 
000003    19820331    20080929    I0003       011366    WENDY'S INTERNATIONAL INC                                    WEN.2       950590109    0000105668     5812      722211     01 
000003    19820630    19861130    I0003       003176    COLLINS & AIKMAN CORP  -OLD                                  CR.1        194828109                   2221      313210     01 
000003    19820630    19861130    I0003       008208    OVERNITE TRANSPORTATION                                      OVT.1       690326103                   4213      484121     01 
000003    19820630    19871130    I0003       005563    HEILEMAN (G) BREWING  -OLD                                   GHB         422884106                   2082      312120     01 
000003    19820630    19951031    I0003       002080    BASSETT FURNITURE INDS                                       BSET        070203104    0000010329     2511      337122     01 
000003    19820630    19980813    I0003       007254    MERCANTILE STORES CO INC                                     MST.        587533100    0000064923     5311      452110     01 
000003    19820630    19980915    I0003       006864    MCI COMMUNICATIONS                                           MCIC.       552673105    0000064079     4813      513310     01 
000003    19820630    20090101    I0003       007267    MERRILL LYNCH & CO INC                                       BAC2        590188108    0000065100     6211      523110     01 
000003    19820831           .    I0003       011259    WAL-MART STORES INC                                          WMT         931142103    0000104169     5331      452990     01 
000003    19820831    19880630    I0003       003165    RANGER INDUSTRIES INC                                        RNGR.1      752907105    0000021610     8742      541611     01 
000003    19820831    19910930    I0003       003610    CROSS & TRECKER CORP                                         CTCO.1      227430105                   3541      333512     01 
000003    19820930           .    I0003       009778    SNAP-ON INC                                                  SNA         833034101    0000091440     3420      332216     01 
000003    19820930           .    I0003       010016    STANLEY BLACK & DECKER INC                                   SWK         854502101    0000093556     3540      333991     01 
000003    19820930    19870630    I0003       006635    LEASEWAY TRANSPORTATION CORP                                 LSWY        522075100    0000313153     4213      484121     01 
000003    19820930    20090401    I0003       009217    ROHM AND HAAS CO                                             ROH         775371107    0000084792     2821      325211     01 
000003    19821031           .    I0003       002435    BROWN FORMAN CORP                                            BF.B        115637209    0000014693     2085      312140     01 
000003    19821031    19890331    I0003       003167    COLEMAN CO INC  -OLD                                         6057B       193558103                   3949      339920     01 
000003    19821031    19900731    I0003       005063    GENERAL INSTRUMENT CORP                                      GIC.3       370120107    0001035881     3663      334220     01 
000003    19821031    19981117    I0003       010093    STONE CONTAINER CORP                                         STO.3       861589109                   2631      322130     01 
000003    19821130           .    I0003       001690    APPLE INC                                                    AAPL        037833100    0000320193     3663      334220     01 
000003    19821130    19970617    I0003       011049    USLIFE CORP                                                  USH.1       917318107    0000102420     6311      524113     01 
000003    19821231           .    I0003       008068    OCCIDENTAL PETROLEUM CORP                                    OXY         674599105    0000797468     1311      211111     01 
000003    19821231    20170618    I0003       009299    RYDER SYSTEM INC                                             R           783549108    0000085961     7510      532120     01 
000003    19830228    19840930    I0003       009312    SCA SERVICES INC                                             SCV.1       783878101    0000087073     4953                 01 
000003    19830228    19950712    I0003       009556    SPX CORP-OLD                                                 SPW.2       784993941                   3540      3335       01 
000003    19830331    19981230    I0003       008468    PENNZENERGY CO                                               PZE.1       70931Q109    0000077320     1311      211111     01 
000003    19830731    20060605    I0003       004371    ENGELHARD CORP                                               EC.2        292845104    0000352947     2810      3251       01 
000003    19830831           .    I0003       003362    CONAGRA BRANDS INC                                           CAG         205887102    0000023217     2000      31142      01 
000003    19830831    19880331    I0003       004652    FINANCIAL CORP OF AMERICA                                    5930B       317421105    0001076328     6036      522120     01 
000003    19830930           .    I0003       006733    L BRANDS INC                                                 LB          501797104    0000701985     5621      448120     01 
000003    19830930    20050721    I0003       010639    TOYS R US INC                                                1231B       892335100    0001005414     5945      451120     01 
000003    19831031    19850630    I0003       005744    HOUSTON PIPE LINE CO                                         ENRNQ1      44299Y004    0000048738     4923      486210     01 
000003    19831130           .    I0003       002136    VERIZON COMMUNICATIONS INC                                   VZ          92343V104    0000732712     4812      517210     01 
000003    19831130           .    I0003       009899    AT&T INC                                                     T           00206R102    0000732717     4812      517210     01 
000003    19831130    19941130    I0003       061489    QWEST COMMUNICATION INTL INC                                 Q.2         749121109    0001037949     4813      517110     01 
000003    19831130    19970402    I0003       008286    PACIFIC TELESIS GROUP                                        PAC.2       694890104    0000732716     4813      513310     01 
000003    19831130    19970817    I0003       008044    NYNEX CORP                                                   NYN         670768100    0000732714     4813      513310     01 
000003    19831130    19991011    I0003       001485    AMERITECH CORP                                               AIT.1       030954101    0000732715     4813      513310     01 
000003    19831130    20070103    I0003       002146    BELLSOUTH CORP                                               BLS         079860102    0000732713     4813      517110     01 
000003    19831231    19890630    I0003       002559    CNW CORP                                                     9257B       126137108    0000854385     4011      482111     01 
000003    19840229           .    I0003       006829    LOWE'S COMPANIES INC                                         LOW         548661107    0000060667     5211      444110     01 
000003    19840229    19860531    I0003       006868    MEI CORP                                                     MEI.2       55299Y109    0000064718     2086      312112     01 
000003    19840229    19871130    I0003       009872    7-ELEVEN INC                                                 SE.3        817826209    0000092344     5412      445120     02 
000003    19840229    19880131    I0003       003352    COMPUTERVISION CORP  -OLD                                    CVN.4       205578107    0000023149     3571      334111     01 
000003    19840229    19970831    I0003       010329    TANDEM COMPUTERS INC                                         TDM.        875370108    0000315180     3571      334111     01 
000003    19840430           .    I0003       008823    PULTEGROUP INC                                               PHM         745867101    0000822416     1531      236117     01 
000003    19840430    19861130    I0003       009297    RYAN HOMES INC                                               RYN.1       783498108    0000085928     1531      233210     01 
000003    19840531           .    I0003       001380    HESS CORP                                                    HES         42809H107    0000004447     1311      211111     01 
000003    19840531    19890831    I0003       003645    CULLINET SOFTWARE INC                                        CUL.2       230032104    0000026109     7372      511210     01 
000003    19840630    19851130    I0003       013499    STORER COMMUNICATIONS INC                                    4660C       862133931    0000094679     4841      513220     02 
000003    19840630    20130922    I0003       001161    ADVANCED MICRO DEVICES                                       AMD         007903107    0000002488     3674      334413     01 
000003    19840731           .    I0003       006774    LOCKHEED MARTIN CORP                                         LMT         539830109    0000936468     3760      336414     01 
000003    19840731    19860630    I0003       006531    LTV CORP                                                     LTVCQ       501921100    0000060731     3312      331111     01 
000003    19840731    20121211    I0003       004040    DONNELLEY (R R) & SONS CO                                    RRD         257867200    0000029669     2750      32311      01 
000003    19840831    19891031    I0003       008022    NOXELL  -CL B                                                NOXLB       670148204                   2844      325611     01 
000003    19840831    19980827    I0003       003705    DSC COMMUNICATIONS CORP                                      DIGI.1      233311109    0000316004     3661      334210     01 
000003    19840930           .    I0003       005518    HASBRO INC                                                   HAS         418056107    0000046080     3944      339930     01 
000003    19841031           .    I0003       001988    BALL CORP                                                    BLL         058498106    0000009389     3411      332431     01 
000003    19841031    19870331    I0003       010488    TEXAS COMMERCE BANCSHARES                                    TCB.3       882315104    0000097409     6020      522110     01 
000003    19841031    19950330    I0003       003930    MAXUS ENERGY CORP                                            MXS         577730104    0000724176     1311      211111     01 
000003    19841031    19980111    I0003       002051    BARNETT BANKS INC                                            BBI.2       068055102    0000010012     6020      522110     01 
000003    19841031    20000607    I0003       009635    SHARED MEDICAL SYSTEMS CORP                                  SMS.2       819486101    0000089415     7373      541512     01 
000003    19841031    20060810    I0003       006403    KERR-MCGEE CORP                                              KMG.1       492386107    0001141185     1311      211111     01 
000003    19841031    20081201    I0003       006768    KATE SPADE & CO                                              KATE        485865109    0000352363     2300      315        01 
000003    19841130    19970727    I0003       006036    INTERGRAPH CORP                                              INGR.       458683109    0000351145     7372      511210     01 
000003    19841130    20001211    I0003       009293    RUSSELL CORP                                                 RML.1       782352108    0000085812     2253      315191     01 
000003    19841130    20060601    I0003       001240    ALBERTSON'S INC                                              ABS.1       013104104    0000003333     5411      445110     01 
000003    19841130    20061001    I0003       001651    ANDREW CORP                                                  ANDW        034425108    0000317093     3357      335929     01 
000003    19841130    20101219    I0003       007866    NEW YORK TIMES CO  -CL A                                     NYT         650111107    0000071691     2711      511110     01 
000003    19841231    19890731    I0003       025658    COMPUTERVISION CORP                                          CVN.2       20557T101    0000080285     7372      511210     01 
000003    19850131    19970101    I0003       009673    SHONEY'S INC                                                 3SHOY       825039100    0000089902     5812      722110     01 
000003    19850131    20120430    I0003       010190    SUPERVALU INC                                                SVU         868536103    0000095521     5141      424410     01 
000003    19850131    20140818    I0003       009258    ROWAN COMPANIES PLC                                          RDC         G7665A101    0000085408     1381      213111     01 
000003    19850228    19900228    I0003       005314    GREAT NORTHERN NEKOOSA CORP                                  GNN         391090107    0000043414     2650      3222       01 
000003    19850430           .    I0003       001209    AIR PRODUCTS & CHEMICALS INC                                 APD         009158106    0000002969     2810      325120     01 
000003    19850430           .    I0003       008030    NUCOR CORP                                                   NUE         670346105    0000073309     3312      331110     01 
000003    19850531           .    I0003       004145    PERKINELMER INC                                              PKI         714046109    0000031791     3826      334516     01 
000003    19850531    19960327    I0003       003586    CRAY RESEARCH                                                CYR.1       225224104    0000025506     3571      334111     01 
000003    19850531    19970101    I0003       006831    LUBYS INC                                                    LUB         549282101    0000016099     5812      722514     01 
000003    19850531    20010129    I0003       003130    EL PASO CGP CO                                               EP2         190441105    0000021267     4922      486210     01 
000003    19850630           .    I0003       007985    NORTHROP GRUMMAN CORP                                        NOC         666807102    0001133421     3812      334511     01 
000003    19850731           .    I0003       005742    CENTERPOINT ENERGY INC                                       CNP         15189T107    0001130310     4931      22111      01 
000003    19850731    19900228    I0003       006734    LIN BROADCASTING                                             LINB        532763109    0000059498     4812      513330     01 
000003    19850731    19990309    I0003       010393    TELE-COMM TCI GROUP  -SER A                                  TCOMA       87924V101                   4841      513220     01 
000003    19850930           .    I0003       011672    TJX COMPANIES INC                                            TJX         872540109    0000109198     5651      448140     01 
000003    19850930    19880731    I0003       004850    FORT HOWARD CORP                                             FORT.       347461931    0000038195     2621      322121     01 
000003    19850930    19930930    I0003       008746    PRICE CO                                                     PCLB.1      741440101    0000356461     5331      452990     01 
000003    19850930    19940531    I0003       010243    SYNTEX CORP                                                  SYN.1       871616108    0000096000     2834      325412     01 
000003    19850930    19960422    I0003       006807    LORAL CORP                                                   LOR.2       543859102    0000060357     3812      334511     01 
000003    19851031           .    I0003       004058    DOVER CORP                                                   DOV         260003108    0000029905     3585      333415     01 
000003    19851031    19880531    I0003       003200    COLTEC INDUSTRIES                                            COT.2       196879100    0000201493     3050      339991     02 
000003    19851031    19961218    I0003       001990    BALLY ENTERTAINMENT CORP                                     BLY         05873C106    0000009435     7990      713        01 
000003    19851130           .    I0003       008358    PARKER-HANNIFIN CORP                                         PH          701094104    0000076334     3490      332912     01 
000003    19851130    19950402    I0003       009224    SAFETY-KLEEN CORP                                            SKLNQ       78648R203    0000701856     4955      562211     01 
000003    19851130    19950430    I0003       004159    E-SYSTEMS INC                                                ESY.1       269157301    0000030875     3812      334511     01 
000003    19851130    20010701    I0003       006802    LONGS DRUG STORES CORP                                       LDG         543162101    0000764762     5912      446110     01 
000003    19851231    19860731    I0003       009395    SANDERS ASSOCIATES INC                                       SAA.1.      799850102    0000086636     3812      334511     01 
000003    19851231    19871130    I0003       010640    TRACOR INC                                                   TTRR        892349200    0000829221     3812      334511     01 
000003    19860131    19890430    I0003       010885    UNITED CABLE TELEVISION                                      UCT         909695108    0000101074     4841      513220     01 
000003    19860131    19950529    I0003       008193    OSHKOSH B'GOSH INC  -CL A                                    GOSHA       688222207    0000075042     2300      31529      01 
000003    19860131    20071220    I0003       010726    TRIBUNE MEDIA CO                                             TRCO        896047107    0000726513     4833      515120     01 
000003    19860228           .    I0003       005878    ILLINOIS TOOL WORKS                                          ITW         452308109    0000049826     3560      33399      01 
000003    19860430    19881231    I0003       010412    LORIMAR TELEPICTURES                                         6049B       544157100    0000313303     7812      512110     01 
000003    19860430    20041219    I0003       003863    DELUXE CORP                                                  DLX         248019101    0000027996     2780      3231       01 
000003    19860531           .    I0003       006268    JOHNSON CONTROLS INTL PLC                                    JCI         G51502105    0000833444     3585      333415     01 
000003    19860531    19860731    I0003       010558    THRIFTY CORPORATION                                          TFD.        885868109                   5912      446110     01 
000003    19860531    19990324    I0003       009280    RUBBERMAID INC                                               RBD         781088109    0000085627     3089      326121     01 
000003    19860531    20001123    I0003       006226    FORT JAMES CORP                                              FJ          347471104    0000053117     2621      322121     01 
000003    19860531    20071028    I0003       002085    BAUSCH & LOMB HLDGS  -REDH                                   6583B       071707103    0001416436     2834      325412     01 
000003    19860630    19971203    I0003       002193    BEVERLY ENTERPRISES INC                                      BEV         087851309    0001040441     8051      623110     01 
000003    19860630    19980927    I0003       006998    MANOR CARE INC-OLD                                           MNR.1       564054104    0000354604     8051      623110     01 
000003    19860731    19900531    I0003       005020    GENENTECH INC                                                DNA         368710109    0000318771     2834      325412     01 
000003    19860731    19900831    I0003       008750    PRIME HOSPITALITY CORP                                       PDQ.2       741917108    0000080293     7011      721110     01 
000003    19860831           .    I0003       004990    GAP INC                                                      GPS         364760108    0000039911     5651      448140     01 
000003    19860831           .    I0003       007922    NORDSTROM INC                                                JWN         655664100    0000072333     5651      448140     01 
000003    19860930    19950704    I0003       006815    LOTUS DEVELOPMENT CORP                                       LOTS.       545700106    0000711761     7372      511210     01 
000003    19861031           .    I0003       007228    MEDTRONIC PLC                                                MDT         G5960L103    0001613103     3845      334510     01 
000003    19861031    19870930    I0003       010199    SUPERMARKETS GEN HLDG  -CL A                                 5654C       868446949    0000821139     5411      445110     02 
000003    19861031    19970914    I0003       001392    AMDAHL CORP                                                  AMH.1       023905102    0000004427     3571      334111     01 
000003    19861031    20081021    I0003       003964    DILLARDS INC  -CL A                                          DDS         254067101    0000028917     5311      452111     01 
000003    19861130           .    I0003       002269    BLOCK H & R INC                                              HRB         093671105    0000012659     7200      541213     01 
000003    19861231           .    I0003       010247    SYSCO CORP                                                   SYY         871829107    0000096021     5140      4244       01 
000003    19861231    20000315    I0003       009611    SERVICE CORP INTERNATIONAL                                   SCI         817565104    0000089089     7200      812210     01 
000003    19861231    20011202    I0003       007773    NATIONAL SERVICE INDS INC                                    NSI.1       637657206    0000070538     7200      812331     01 
000003    19861231    20020514    I0003       010946    US AIRWAYS GROUP INC-OLD                                     3UAIRQ      911905107                   4512      481111     01 
000003    19861231    20071230    I0003       010426    TEMPLE-INLAND INC                                            TIN         879868107    0000731939     2631      322130     01 
000003    19870131    20060131    I0003       009004    REEBOK INTERNATIONAL LTD                                     RBK         758110100    0000770949     3021      316211     01 
000003    19870228    19940228    I0003       004462    NEWMARKET CORP                                               NEU         651587107    0001282637     2860      325180     01 
000003    19870228    19980407    I0003       002938    CHARMING SHOPPES INC                                         CHRS.1      161133103    0000019353     5621      448120     01 
000003    19870331    19880229    I0003       002418    BROCKWAY INC                                                 BRK.1       111853107                   3221      327213     01 
000003    19870331    19890630    I0003       007574    CORDANT TECHNOLOGIES INC                                     CDD.2       218412104    0000068366     3320      331512     01 
000003    19870430    19880331    I0003       009067    FIRST REPUBLICBANK CORP                                      6131B       336160106    0000083251     6020      522110     01 
000003    19870430    19981001    I0003       007650    FIRST CHICAGO NBD CORP                                       FCN.1       31945A100    0000070040     6020      522110     01 
000003    19870430    19981102    I0003       011359    WELLS FARGO & CO -OLD                                        WFC.Z       949740104    0000105598     6020      522110     01 
000003    19870430    20090105    I0003       010974    UST INC                                                      UST.1       902911106    0000811669     2100      312229     01 
000003    19870531    19890831    I0003       006251    JERRICO INC                                                  JERR        476502109    0000053449     5812      722110     01 
000003    19870630    19961015    I0003       003276    TRANSITIONAL HOSPITALS CP                                    THY         893719104    0000022764     8060      622        01 
000003    19870731           .    I0003       003310    CA INC                                                       CA          12673P105    0000356028     7372      511210     01 
000003    19870731    19880531    I0003       006495    KOPPERS CO                                                   KOP.1       500602107                   1400      2123       01 
000003    19870731    19970526    I0003       003426    CONRAIL INC                                                  CRR.3       208368100    0000897732     4011      482111     01 
000003    19870831           .    I0003       007065    MARSH & MCLENNAN COS                                         MMC         571748102    0000062709     6411      524210     01 
000003    19870831    19980715    I0003       005151    GIANT FOOD INC  -CL A                                        GFS.A       374478105    0000041289     5411      445110     01 
000003    19870831    19990527    I0003       007554    MOORE WALLACE INC                                            MWI         615857109    0000067931     2761      323116     01 
000003    19870831    20020721    I0003       008626    PLACER DOME INC                                              PDG         725906101    0000819996     1040      212221     01 
000003    19870930    19880430    I0003       005842    I M S INTERNATIONAL INC                                      IMSI.       449700103                   8700      5419       01 
000003    19871031    19931130    I0003       003226    COMCAST CORP                                                 CMCSA       20030N101    0001166691     4841      515210     01 
000003    19871031    19980331    I0003       009357    SAFETY-KLEEN CORP-OLD                                        SK.1        786484105                   7389      561499     01 
000003    19871231           .    I0003       001913    AVERY DENNISON CORP                                          AVY         053611109    0000008818     2670      322220     01 
000003    19871231    19900822    I0003       008545    PHILIPS INDUSTRIES INC                                       PHL.1       718320104    0000205778     3564      333412     01 
000003    19871231    19960815    I0003       008093    COVANTA ENERGY CORP                                          CVGYQ       22281N103    0000073902     4991      221119     01 
000003    19871231    19971223    I0003       004769    FLEMING COMPANIES INC                                        FLMIQ       339130106    0000352949     5141      422410     01 
000003    19871231    20150830    I0003       008304    PALL CORP                                                    PLL         696429307    0000075829     3569      333999     01 
000003    19880229    19940926    I0003       007171    MCKESSON CORP                                                MCK         58155Q103    0000927653     5122      424210     01 
000003    19880229    19991230    I0003       005581    HELMERICH & PAYNE                                            HP          423452101    0000046765     1381      213111     01 
000003    19880229    20000628    I0003       001246    IKON OFFICE SOLUTIONS                                        IKN         451713101    0000003370     5040      423420     01 
000003    19880229    20020505    I0003       003282    COMPAQ COMPUTER CORP                                         CPQ.2       204493100    0000714154     3571      334111     01 
000003    19880331           .    I0003       005680    HOME DEPOT INC                                               HD          437076102    0000354950     5211      444110     01 
000003    19880430           .    I0003       008245    PNC FINANCIAL SVCS GROUP INC                                 PNC         693475105    0000713676     6020      522110     01 
000003    19880430    19920331    I0003       009577    SECURITY PACIFIC CORP                                        7448B       814823100    0000088608     6020      522110     01 
000003    19880430    19981221    I0003       005080    GENERAL RE CORP                                              GRN.1       370563108    0000317745     6331      524130     01 
000003    19880430    20040630    I0003       001998    BANK ONE CORP                                                ONE.1       06423A103    0001067092     6020      522110     01 
000003    19880531           .    I0003       003243    CITIGROUP INC                                                C           172967424    0000831001     6199      522110     01 
000003    19880531           .    I0003       010187    SUNTRUST BANKS INC                                           STI         867914103    0000750556     6020      522110     01 
000003    19880531    19890731    I0003       007040    MARION MERRELL DOW INC                                       MKC.1       569790108    0000062391     2834      325412     01 
000003    19880531    19900430    I0003       008004    NORTON CO                                                    NRT.3       668605108    0000073104     3290      327999     01 
000003    19880630    19941024    I0003       008805    PSI RESOURCES INC                                            CIN2        693632002    0000829966     4911      22111      01 
000003    19880630    19960101    I0003       004700    FIRST FIDELITY BANCORP                                       FFB         320195100    0000823870     6020      522110     01 
000003    19880630    19990812    I0003       008960    RAYCHEM CORP                                                 RYC.        754603108    0000082206     3640      335932     01 
000003    19880630    20061001    I0003       005216    GOLDEN WEST FINANCIAL CORP                                   GDW         381317106    0000042293     6035      522120     01 
000003    19880731    20041219    I0003       011600    WORTHINGTON INDUSTRIES                                       WOR         981811102    0000108516     3310      331221     01 
000003    19880731    20100714    I0003       007409    MILLIPORE CORP                                               MIL.2       601073109    0000066479     3826      334516     01 
000003    19880831    20080910    I0003       004601    FANNIE MAE                                                   FNMA        313586109    0000310522     6111      522294     01 
000003    19881031    19970114    I0003       001253    ALEXANDER & ALEXANDER                                        AAL.1       014476105    0000003449     6411      524210     01 
000003    19881031    19990228    I0003       014878    ORYX ENERGY CO                                               ORX         68763F100    0000836442     1311      211111     01 
000003    19881130           .    I0003       007906    NIKE INC                                                     NKE         654106103    0000320187     3021      316210     01 
000003    19881130    20040331    I0003       004764    FLEETBOSTON FINANCIAL CORP                                   FBF         339030108    0000050341     6020      522110     01 
000003    19881231    19900930    I0003       003542    CORROON & BLACK CORP                                         CBL.1       220291108    0000024975     6411      524210     01 
000003    19881231    19920101    I0003       009911    C & S SOVRAN CORP                                            CVN.3       12467H103    0000857167     6020      522110     01 
000003    19890131           .    I0003       004213    ECOLAB INC                                                   ECL         278865100    0000031462     2842      325612     01 
000003    19890131    19970806    I0003       001746    NORAM ENERGY CORP                                            CNP2        655419000    0000007314     4923      422720     01 
000003    19890228    19991115    I0003       006450    KING WORLD PRODUCTIONS INC                                   KWP         495667107    0000756764     7822      512120     01 
000003    19890228    20090101    I0003       004739    WACHOVIA CORP                                                WB.3        929903102    0000036995     6020      522110     01 
000003    19890331    19950223    I0003       007727    NATIONAL EDUCATION CORP                                      NEC         635771108    0000277821     8200      611519     01 
000003    19890331    19991129    I0003       008290    PACIFICORP                                                   MEC2        59598X002    0000075594     4911      2211       01 
000003    19890331    20091220    I0003       012689    KB HOME                                                      KBH         48666K109    0000795266     1531      236117     01 
000003    19890430           .    I0003       007875    NEWELL BRANDS INC                                            NWL         651229106    0000814453     3990      3399       01 
000003    19890430           .    I0003       010614    TORCHMARK CORP                                               TMK         891027104    0000320335     6311      524113     01 
000003    19890430    19920930    I0003       011453    WETTERAU INC                                                 WETT        961896107    0000106521     5141      422410     01 
000003    19890430    19960530    I0003       013028    PREMARK INTERNATIONAL INC                                    PMI.2       740459102    0000800575     3580      333319     01 
000003    19890531    19951130    I0003       005501    SHAWMUT NATIONAL CORP                                        SNC.1       820484103    0000823393     6020      522110     01 
000003    19890531    20080330    I0003       003054    CIRCUIT CITY STORES INC                                      CCTYQ       172737108    0000104599     5731      443112     01 
000003    19890731    19990621    I0003       015426    MORTON INTERNATIONAL INC                                     MII.3       619335102    0001035972     2890      325520     01 
000003    19890731    20000509    I0003       006288    JOSTENS INC                                                  JOSEA       481088300    0000054050     3911      339911     01 
000003    19890731    20090316    I0003       010787    TYCO INTERNATIONAL PLC                                       TYC         G91442106    0001608109     3669      334290     01 
000003    19890731    20130708    I0003       010984    SPRINT CORP                                                  S           852061100    0000101830     4812      517210     01 
000003    19890831           .    I0003       012142    ORACLE CORP                                                  ORCL        68389X105    0001341439     7372      511210     01 
000003    19890831    19960815    I0003       005342    MONEYGRAM INTERNATIONAL INC                                  MGI         60935Y208    0001273931     6099      522320     01 
000003    19890831    19991017    I0003       011993    CYPRUS AMAX MINERALS CO                                      CYM.1       232809103    0000769589     1000      212234     01 
000003    19890831    20081113    I0003       001794    ASHLAND GLOBAL HOLDINGS INC                                  ASH         044186104    0001674862     2820      3252       01 
000003    19890831    20111212    I0003       007904    NICOR INC                                                    GAS.2       654086107    0000072020     4924      221210     01 
000003    19890831    20120701    I0003       002783    PROGRESS ENERGY INC                                          DUK8        743263105    0001094093     4911      2211       01 
000003    19890930    19970101    I0003       009298    RYAN'S RESTAURANT GROUP INC                                  RYAN        783520109    0000355622     5812      722110     01 
000003    19890930    19990608    I0003       013003    JOY GLOBAL INC                                               JOY         413345109    0000801898     3532      333131     01 
000003    19891031    19980331    I0003       005476    HARLAND (JOHN H.) CO                                         JH          412693103    0000045599     2780      323110     01 
000003    19891031    20040502    I0003       001468    AMERICAN GREETINGS  -CL A                                    AM.1        026375105    0000005133     2771      511191     01 
000003    19891130    20170104    I0003       009372    ST JUDE MEDICAL INC                                          STJ         790849103    0000203077     3845      334510     01 
000003    19891201           .    I0003       001878    AUTODESK INC                                                 ADSK        052769106    0000769397     7370      519130     01 
000003    19891201    19971006    I0003       010109    STRIDE RITE CORP                                             SRR         863314100    0000094887     3140      316219     01 
000003    19900201    20080128    I0003       020423    CAESARS ENTERTAINMENT CORP                                   CZR         413619107    0000858339     7990      721120     01 
000003    19900301    19980119    I0003       004205    ECHO BAY MINES LTD                                           ECO.2       278751102    0000722080     1040      212221     01 
000003    19900301    19990801    I0003       007679    NALCO CHEMICAL CO                                            NLC.2       629853102    0000069598     2890      325998     01 
000003    19900501    20060717    I0003       003502    COOPER TIRE & RUBBER CO                                      CTB         216831107    0000024491     3011      326211     01 
000003    19900601    19951219    I0003       007567    MORRISON KNUDSEN CORP OLD                                    3MRNKQ      618447106    0000763739     1540      233320     01 
000003    19900801    20000402    I0003       008475    PEP BOYS-MANNY MOE & JACK                                    PBY         713278109    0000077449     5531      441310     01 
000003    19900801    20070711    I0003       002230    BIOMET INC                                                   5938B       090613100    0000351346     3842      339113     01 
000003    19900901    19930930    I0003       006223    EMCOR GROUP INC                                              EME         29084Q100    0000105634     1731      238210     01 
000003    19901001    19970803    I0003       010931    U S BANCORP-OLD                                              USBC.       911596104    0000101542     6020      522110     01 
000003    19901201    19970727    I0003       009406    SANTA FE SNYDER CORP                                         SFS.1       80218K105    0000086772     1311      211111     01 
000003    19901201    19980428    I0003       003527    CORESTATES FINANCIAL CORP                                    CFL.1       218695104    0000069952     6020      522110     01 
000003    19901211    20010624    I0003       001359    ALZA CORP                                                    AZA.1       022615108    0000004310     2834      325412     01 
000003    19910101    19940831    I0003       003491    BLOCKBUSTER ENMNT CORP                                       BV.2        093676104    0000710979     7841      532230     01 
000003    19910201    19970107    I0003       002281    BOATMENS BANCSHARES INC                                      BOAT.       096650106    0000040454     6020      522110     01 
000003    19910401    19950117    I0003       010672    TRANSCO ENERGY CO                                            E.2         893532101    0000099231     4922      486210     01 
000003    19910401    19950208    I0003       023798    PET INC                                                      PT.1        715825105    0000077709     2000      311111     01 
000003    19910501           .    I0003       007017    MARATHON OIL CORP                                            MRO         565849106    0000101778     1311      211111     01 
000003    19910501    19950817    I0003       002443    BRUNOS INC                                                   BRNO20      116881202    0000014920     5411      445110     01 
000003    19910501    20140701    I0003       023978    UNITED STATES STEEL CORP                                     X           912909108    0001163302     3312      331110     01 
000003    19910919           .    I0003       010860    AMEREN CORP                                                  AEE         023608102    0001002910     4931      2211       01 
000003    19911001    20110427    I0003       011910    NOVELL INC                                                   NOVL        670006105    0000758004     7370      541519     01 
000003    19911101    20050704    I0003       005306    GREAT LAKES CHEMICAL CORP                                    GLK.1       390568103    0000043362     2890      325998     01 
000003    19920102           .    I0003       001602    AMGEN INC                                                    AMGN        031162100    0000318154     2836      325414     01 
000003    19920102    20080910    I0003       015208    FEDERAL HOME LOAN MORTG CORP                                 FMCC        313400301    0001026214     6111      522298     01 
000003    19920207    20150322    I0003       015708    ALLERGAN INC                                                 AGN.2       018490102    0000850693     2834      325412     01 
000003    19920401    20060102    I0003       023592    MBNA CORP                                                    KRB         55262L100    0000870517     6020      522110     01 
000003    19920701           .    I0003       025124    PRAXAIR INC                                                  PX          74005P104    0000884905     2810      325120     01 
000003    19920701    19970716    I0003       016475    GIDDINGS & LEWIS INC/WI                                      GIDL        375048105    0000851588     3540      333512     01 
000003    19920701    19981001    I0003       010972    U S SURGICAL CORP                                            USS.2       912707106    0000101788     3841      339112     01 
000003    19920801    20100128    I0003       012136    SUN MICROSYSTEMS INC                                         JAVA        866810203    0000709519     3571      334111     01 
000003    19921001           .    I0003       006136    INTERPUBLIC GROUP OF COS                                     IPG         460690100    0000051644     7311      541810     01 
000003    19930701    19940831    I0003       013644    MCCAW CELLULAR COMM  -CL A                                   MCAWA       579468109    0000818687     4812      513330     01 
000003    19930701    19960121    I0003       028590    BRINKS CO                                                    BCO         109696104    0000078890     7381      561613     01 
000003    19930701    19970601    I0003       027867    DEAN WITTER DISCOVER & CO                                    DWD         24240V101                   6141      522210     01 
000003    19930801    20011212    I0003       028701    RALSTON PURINA CO                                            RAL.        751277302    0000081870     2040      311111     01 
000003    19930901    20061119    I0003       022260    HCA HEALTHCARE INC                                           HCA         404119109    0000860730     8062      622110     02 
000003    19931001           .    I0003       029028    COSTCO WHOLESALE CORP                                        COST        22160K105    0000909832     5399      452910     01 
000003    19931001    19980520    I0003       028930    MARRIOTT INTL INC                                            MAR         571903103    0001048286     7011      721110     01 
000003    19931001    19991003    I0003       008596    PIONEER HI-BRED INTERNATIONL                                 PHB.1       723686101    0000078716     0100      111150     01 
000003    19931001    20010903    I0003       011247    WACHOVIA CORP-OLD                                            WB.1        929771103    0000774203     6020      522110     01 
000003    19931101    20020721    I0003       002055    BARRICK GOLD CORP                                            ABX         067901108    0000756894     1040      212221     01 
000003    19931101    20060402    I0003       015084    BURLINGTON RESOURCES INC                                     BR.2        122014103    0000833320     1311      211111     01 
000003    19931201           .    I0003       020779    CISCO SYSTEMS INC                                            CSCO        17275R102    0000858877     3576      334210     01 
000003    19931201    20021118    I0003       003226    COMCAST CORP                                                 CMCSA       20030N200    0001166691     4841      515210     02 
000003    19940101           .    I0003       029392    EASTMAN CHEMICAL CO                                          EMN         277432100    0000915389     2821      325211     01 
000003    19940301           .    I0003       009783    KEYCORP                                                      KEY         493267108    0000091576     6020      522110     01 
000003    19940301           .    I0003       012726    UNUM GROUP                                                   UNM         91529Y106    0000005513     6321      524114     01 
000003    19940301    19980810    I0003       029849    WESTERN ATLAS INC                                            WAI.1       957674104    0000913340     1382      541360     01 
000003    19940401    19960718    I0003       010948    U S HEALTHCARE INC                                           USHC        911910107    0000711405     6324      621491     01 
000003    19940405    19990629    I0003       029318    AIRTOUCH COMMUNICATIONS-OLD                                  ATI.1       00949T100    0000904255     4812      513322     01 
000003    19940601           .    I0003       012141    MICROSOFT CORP                                               MSFT        594918104    0000789019     7372      511210     01 
000003    19940701           .    I0003       009882    SOUTHWEST AIRLINES                                           LUV         844741108    0000092380     4512      481111     01 
000003    19940701           .    I0003       010903    UNITEDHEALTH GROUP INC                                       UNH         91324P102    0000731766     6324      524114     01 
000003    19940901           .    I0003       013714    CBS CORP                                                     CBS         124857202    0000813828     4888      515120     03 
000003    19940901    20151118    I0003       009699    SIGMA-ALDRICH CORP                                           SIAL        826552101    0000090185     2833      325411     01 
000003    19940927           .    I0003       007343    MICRON TECHNOLOGY INC                                        MU          595112103    0000723125     3674      334413     01 
000003    19940927    20070924    I0003       025157    FIRST DATA CORP                                              FDC         319963104    0000883980     7374      518210     01 
000003    19940927    20090101    I0003       007711    NATIONAL CITY CORP                                           NCC         635405103    0000069970     6020      522110     01 
000003    19941003    19970505    I0003       030344    SANTA FE PACIFIC GOLD CORP                                   GLD.2       802176107    0000921754     1040      212221     01 
000003    19941025    20060402    I0003       030865    CINERGY CORP                                                 DUK6        172474108    0000899652     4911      22111      01 
000003    19941201    20110331    I0003       061489    QWEST COMMUNICATION INTL INC                                 Q.2         749121109    0001037949     4813      517110     01 
000003    19941221    20071118    I0003       001318    ALLTEL CORP                                                  AT.2        020039103    0000065873     4812      517212     01 
000003    19950118    20000620    I0003       012679    SILICON GRAPHICS INC                                         SGICQ       827056102    0000802301     7370      541519     01 
000003    19950209    20011106    I0003       005079    GPU INC                                                      GPU.        36225X100    0000040779     4911      22111      01 
000003    19950224           .    I0003       025279    BOSTON SCIENTIFIC CORP                                       BSX         101137107    0000885725     3845      334510     01 
000003    19950316           .    I0003       001704    APPLIED MATERIALS INC                                        AMAT        038222105    0000006951     3559      333242     01 
000003    19950331           .    I0003       002019    BANK OF NEW YORK MELLON CORP                                 BK          064058100    0001390777     6020      522110     01 
000003    19950403    19991207    I0003       006557    LAIDLAW INTERNATIONAL INC                                    LI.3        50730K503    0000737874     4100      485410     03 
000003    19950501    20060731    I0003       003278    AVIS BUDGET GROUP INC                                        CAR         053774105    0000723612     7510      532111     01 
000003    19950510           .    I0003       006781    LOEWS CORP                                                   L           540424108    0000060086     6331      524126     01 
000003    19950522    20010805    I0003       015354    ENTERASYS NETWORKS INC                                       ETS         293637401    0000846909     3576      334119     01 
000003    19950530           .    I0003       031846    DARDEN RESTAURANTS INC                                       DRI         237194105    0000940944     5812      722511     01 
000003    19950530    19990930    I0003       013099    FRUIT OF THE LOOM LTD  -CL A                                 3FTLAQ      G3682L105                   2250      315192     01 
000003    19950703    20111220    I0003       010420    TELLABS INC                                                  TLAB        879664100    0000317771     3661      334210     01 
000003    19950705    20000102    I0003       009061    HSBC USA INC                                                 HBC2        760719104    0000083246     6020      522110     01 
000003    19950713           .    I0003       028349    ALLSTATE CORP                                                ALL         020002101    0000899051     6331      524126     01 
000003    19950731           .    I0003       014590    FREEPORT-MCMORAN INC                                         FCX         35671D857    0000831259     1000      212234     02 
000003    19950818    20020210    I0003       011502    WILLAMETTE INDUSTRIES                                        WLL.1       969133107    0000107189     2621      322121     01 
000003    19950922           .    I0003       012124    MORGAN STANLEY                                               MS          617446448    0000895421     6211      523110     01 
000003    19951023    20010226    I0003       004682    U S BANCORP/DE-OLD                                           USB.1       902973106                   6020      522110     01 
000003    19951101    20000615    I0003       061464    MEDIAONE GROUP INC                                           UMG.Z       58440J104    0000732718     4841      513220     01 
000003    19951108           .    I0003       004611    MACY'S INC                                                   M           55616P104    0000794367     5311      452111     02 
000003    19951127           .    I0003       008455    PPL CORP                                                     PPL         69351T106    0000922224     4911      2211       01 
000003    19951201           .    I0003       003231    COMERICA INC                                                 CMA         200340107    0000028412     6020      522110     01 
000003    19951201           .    I0003       027914    HUMANA INC                                                   HUM         444859102    0000049071     6324      621491     01 
000003    19951214    20140507    I0003       006529    LSI CORP                                                     LSI.1       502161102    0000703360     3674      334413     01 
000003    19951220           .    I0003       061739    HARTFORD FINANCIAL SERVICES                                  HIG         416515104    0000874766     6331      524126     01 
000003    19951220    19980222    I0003       061738    ITT CORPORATION                                              ITT.1       450912100    0001001149     7011      721110     01 
000003    19960102    20000727    I0003       010553    3COM CORP                                                    COMS        885535104    0000738076     3576      334119     01 
000003    19960122    19991114    I0003       030383    CASE CORP                                                    CSE.3       14743R103    0000922321     3523      333111     01 
000003    19960212    19980830    I0003       024357    BAY NETWORKS INC                                             BAY.3       072510100    0000876516     3576      334119     01 
000003    19960308           .    I0003       004640    FIFTH THIRD BANCORP                                          FITB        316773100    0000035527     6020      522110     01 
000003    19960313    19980630    I0003       005331    CONSECO FINANCE CORP                                         3CNCEQ1     20847Q008    0000890175     6141      522220     01 
000003    19960328    20160907    I0003       012053    EMC CORP/MA                                                  EMC         268648102    0000790070     3572      334112     01 
000003    19960401    20000105    I0003       005063    GENERAL INSTRUMENT CORP                                      GIC.3       370120107    0001035881     3663      334220     01 
000003    19960401    20020514    I0003       001164    MCI INC                                                      MCIP        98157D106    0000723527     4813      517110     01 
000003    19960423           .    I0003       003221    AON PLC                                                      AON         G0408V102    0000315293     6411      524210     01 
000003    19960531    20040324    I0003       062897    TUPPERWARE BRANDS CORP                                       TUP         899896104    0001008654     3089      326199     01 
000003    19960719    20081030    I0003       024379    MGIC INVESTMENT CORP/WI                                      MTG         552848103    0000876437     6351      524126     01 
000003    19960722    19990808    I0003       011985    BATTLE MOUNTAIN GOLD CO                                      BMG.1       071593107    0000771498     1040      212221     01 
000003    19960816    19971217    I0003       025988    HFS INC                                                      HFS.        404181109    0000891104     6794      533110     01 
000003    19960816    20001121    I0003       009545    SEAGATE TECHNOLOGY-OLD                                       SEG.2       811804103    0000354952     3572      334112     01 
000003    19960906    20131028    I0003       014489    DELL TECHNOLOGIES INC                                        DVMT        24702R101    0001571996     3571      334111     01 
000003    19961001    20061130    I0003       062599    LUCENT TECHNOLOGIES INC                                      LU          549463107    0001006240     7373      541512     01 
000003    19961016    20000716    I0003       061413    UNION PACIFIC RESOURCES GRP                                  UPR.1       907834105    0000949061     1311      211111     01 
000003    19961104    20100228    I0003       063800    IMS HEALTH HOLDINGS INC                                      IMS         449934108    0001595262     8700      541910     01 
000003    19961203    20091220    I0003       013561    MBIA INC                                                     MBI         55262C100    0000814585     6351      524126     01 
000003    19961219    20060423    I0003       031166    GUIDANT CORP                                                 GDT         401698105    0000929987     3841      339112     01 
000003    19970102           .    I0003       010530    THERMO FISHER SCIENTIFIC INC                                 TMO         883556102    0000097745     3826      334516     01 
000003    19970102           .    I0003       023809    AUTOZONE INC                                                 AZO         053332102    0000866787     5531      441310     01 
000003    19970102    19990928    I0003       009195    FRONTIER CORP                                                FRO.1       35906P105    0000084567     4813      513310     01 
000003    19970108    20030320    I0003       012589    HEALTHSOUTH CORP                                             HLS         421924309    0000785161     8060      622310     01 
000003    19970115    20020724    I0003       012603    CNO FINANCIAL GROUP INC                                      CNO         208464107    0001224608     6321      524114     01 
000003    19970403    20070102    I0003       018699    PTC INC                                                      PTC         69370C100    0000857005     7372      511210     01 
000003    19970506           .    I0003       012540    ADOBE SYSTEMS INC                                            ADBE        00724F101    0000796343     7372      511210     01 
000003    19970527           .    I0003       002751    CARDINAL HEALTH INC                                          CAH         14149Y108    0000721371     5122      424210     01 
000003    19970602           .    I0003       013988    SCHWAB (CHARLES) CORP                                        SCHW        808513105    0000316709     6282      523920     01 
000003    19970611    20051002    I0003       002731    PROVIDIAN FINANCIAL CORP                                     PVN         74406A102    0001035713     6020      522110     01 
000003    19970618    20080630    I0003       003555    COUNTRYWIDE FINANCIAL CORP                                   CFC.3       222372104    0000025191     6162      522292     01 
000003    19970619           .    I0003       004423    EQUIFAX INC                                                  EFX         294429105    0000033185     7323      561450     01 
000003    19970702    20080929    I0003       016243    WASHINGTON MUTUAL INC                                        WAMUQ       939322103                   6035      522120     01 
000003    19970717    19990103    I0003       006351    SUNAMERICA INC                                               SAI.1       866930100    0000054727     6311      524113     01 
000003    19970728           .    I0003       001678    APACHE CORP                                                  APA         037411105    0000006769     1311      211111     01 
000003    19970728           .    I0003       011923    ANADARKO PETROLEUM CORP                                      APC         032511107    0000773910     1311      211111     01 
000003    19970804           .    I0003       013341    PROGRESSIVE CORP-OHIO                                        PGR         743315103    0000080661     6331      524126     01 
000003    19970804    20001210    I0003       008215    OWENS-ILLINOIS INC                                           OI          690768403    0000812074     3221      327213     02 
000003    19970806           .    I0003       005786    HUNTINGTON BANCSHARES                                        HBAN        446150104    0000049196     6020      522110     01 
000003    19970807    20000531    I0003       005211    MIRAGE RESORTS INC                                           MIR.1       60462E104    0000042246     7990      721120     01 
000003    19970818           .    I0003       010035    STATE STREET CORP                                            STT         857477103    0000093751     6020      523920     01 
000003    19970901    20080730    I0003       003105    IHEARTMEDIA INC                                              IHRT        184502102    0001400891     4832      515112     01 
000003    19970915           .    I0003       006304    KLA-TENCOR CORP                                              KLAC        482480100    0000319201     3827      333314     01 
000003    19971007           .    I0003       065417    YUM BRANDS INC                                               YUM         988498101    0001041061     5812      722513     01 
000003    19971023    19990112    I0003       005399    HBO & CO                                                     HBOC.1      404100109    0000310377     7373      541512     01 
000003    19971128    20080101    I0003       013041    SYNOVUS FINANCIAL CORP                                       SNV         87161C501    0000018349     6020      522110     01 
000003    19971204           .    I0003       011856    BB&T CORP                                                    BBT         054937107    0000092230     6020      522110     01 
000003    19971218           .    I0003       014824    CINCINNATI FINANCIAL CORP                                    CINF        172062101    0000020286     6331      524126     01 
000003    19971224           .    I0003       004066    OMNICOM GROUP                                                OMC         681919106    0000029989     7311      541810     01 
000003    19980112    20080916    I0003       030128    LEHMAN BROTHERS HOLDINGS INC                                 LEHMQ       524908100    0000806085     6211      523110     01 
000003    19980120    20130213    I0003       012123    BIG LOTS INC                                                 BIG         089302103    0000768835     5331      452990     01 
000003    19980128    20010228    I0003       010909    SUMMIT BANCORP                                               SUB.2       866005101    0000101320     6020      522110     01 
000003    19980130           .    I0003       007982    NORTHERN TRUST CORP                                          NTRS        665859104    0000073124     6020      522110     01 
000003    19980223    19990919    I0003       007252    MERCANTILE BANCORPORATION                                    MTL.3       587342106    0000064907     6020      522110     01 
000003    19980401           .    I0003       009555    SEALED AIR CORP                                              SEE         81211K100    0001012100     2670      326112     01 
000003    19980401    20050814    I0003       024870    NEXTEL COMMUNICATIONS INC                                    NXTL        65332V103    0000824169     4812      517212     01 
000003    19980408    20001203    I0003       001831    ASSOCIATES FIRST CAP -CL A                                   AFS         046008108    0000007974     6141      522291     01 
000003    19980427    20060731    I0003       029345    GATEWAY INC                                                  GTW         367626108    0000895812     3571      334111     01 
000003    19980429           .    I0003       004885    FRANKLIN RESOURCES INC                                       BEN         354613101    0000038777     6282      523920     01 
000003    19980521           .    I0003       028930    MARRIOTT INTL INC                                            MAR         571903202    0001048286     7011      721110     02 
000003    19980612    19990624    I0003       030203    ASCEND COMMUNICATIONS INC                                    ASND.1      043491109    0000921146     3576      334119     01 
000003    19980701           .    I0003       010121    NAVIENT CORP                                                 NAVI        63938C108    0001593538     6111      522298     04 
000003    19980701           .    I0003       030990    CAPITAL ONE FINANCIAL CORP                                   COF         14040H105    0000927628     6141      522210     01 
000003    19980701    20080601    I0003       011818    BEAR STEARNS COMPANIES INC                                   BSC.1       073902108    0000777001     6211      523120     01 
000003    19980710    19990527    I0003       012681    MEYER (FRED) INC                                             FMY.1       592907109    0001043273     5411      445110     01 
000003    19980716    20070708    I0003       004016    DOLLAR GENERAL CORP                                          DG          256669102    0000029534     5331      452990     01 
000003    19980717           .    I0003       014477    WASTE MANAGEMENT INC                                         WM          94106L109    0000823768     4953      562111     01 
000003    19980811    20080826    I0003       005074    ELECTRONIC DATA SYSTEMS CORP                                 EDS.        285661104    0001007456     7370      541513     01 
000003    19980814           .    I0003       025283    KOHL'S CORP                                                  KSS         500255104    0000885639     5311      452111     01 
000003    19980828           .    I0003       004674    REGIONS FINANCIAL CORP                                       RF          7591EP100    0001281761     6020      522110     01 
000003    19980831    19990630    I0003       008794    PROVIDENT COS INC                                            PVT.        743862104                   6321      524114     03 
000003    19980916    20001211    I0003       009113    NABISCO GROUP HOLDINGS CORP                                  NGH.2       62952P102    0000847903     2052      311821     01 
000003    19980928    20071108    I0003       024607    MANOR CARE INC                                               HCR         564055101    0000878736     8051      623110     01 
000003    19981001           .    I0003       008402    PAYCHEX INC                                                  PAYX        704326107    0000723531     8721      541214     01 
000003    19981001    20040630    I0003       010868    UNION PLANTERS CORP                                          UPC.        908068109    0000100893     6020      522110     01 
000003    19981001    20130910    I0003       014650    BMC SOFTWARE INC                                             BMC         055921100    0000835729     7372      511210     01 
000003    19981002           .    I0003       024216    AES CORP                                                     AES         00130H105    0000874761     4991      22111      01 
000003    19981002    20041228    I0003       025944    PEOPLESOFT INC                                               PSFT.       712713106    0000875570     7372      511210     01 
000003    19981007           .    I0003       015521    STAPLES INC                                                  SPLS        855030102    0000791519     5110      424120     01 
000003    19981008    20160530    I0003       012756    COCA-COLA EUROPEAN PARTNERS                                  CCE         G25839104    0001650107     2086      312111     01 
000003    19981103    20000820    I0003       008804    NEW CENTURY ENERGIES INC                                     NCE.1       64352U103    0001004858     4931      22111      01 
000003    19981113    20150126    I0003       009359    SAFEWAY INC                                                  SWY         786514208    0000086144     5411      445110     01 
000003    19981118           .    I0003       003735    DANAHER CORP                                                 DHR         235851102    0000313616     3826      334516     01 
000003    19981124    20040422    I0003       116245    SPRINT PCS GROUP                                             PCS.1       852061506                   4812      517212     01 
000003    19981222           .    I0003       013498    CARNIVAL CORP/PLC (USA)                                      CCL         143658300    0000815097     4400      483112     01 
000003    19981231    20071001    I0003       017110    SOLECTRON CORP                                               SLR         834182107    0000835541     3672      334412     01 
000003    19990104           .    I0003       004723    U S BANCORP                                                  USB         902973304    0000036104     6020      522110     01 
000003    19990104           .    I0003       025056    TIME WARNER INC                                              TWX         887317303    0001105705     4888      512110     01 
000003    19990104    20120102    I0003       026011    COMPUWARE CORP                                               CPWR.1      205638109    0000859014     7372      511210     01 
000003    19990113           .    I0003       007171    MCKESSON CORP                                                MCK         58155Q103    0000927653     5122      424210     01 
000003    19990301    20041031    I0003       009880    SOUTHTRUST CORP                                              SOTR        844730101    0000092081     6020      522110     01 
000003    19990310    20061105    I0003       001619    AMSOUTH BANCORPORATION                                       ASO.1       032165102    0000003133     6020      522110     01 
000003    19990325           .    I0003       002884    CENTURYLINK INC                                              CTL         156700106    0000018926     4813      517110     01 
000003    19990405    20000712    I0003       006335    KANSAS CITY SOUTHERN                                         KSU         485170302    0000054480     4011      482111     01 
000003    19990412           .    I0003       027845    ALLERGAN PLC                                                 AGN         G0177J108    0001578845     2834      325412     01 
000003    19990503           .    I0003       003439    CMS ENERGY CORP                                              CMS         125896100    0000811156     4931      22111      01 
000003    19990528           .    I0003       001449    AFLAC INC                                                    AFL         001055102    0000004977     6321      524114     01 
000003    19990528    20051010    I0003       118122    DELPHI AUTOMOTIVE PLC                                        DLPH        247126105    0001521332     3714      336320     01 
000003    19990604    20001105    I0003       008299    PAINE WEBBER GROUP                                           PWJ.        695629105    0000075754     6211      523120     01 
000003    19990609    20041130    I0003       027766    WELLPOINT HEALTH NETWRKS INC                                 WLP.1       94973H108    0001013220     6324      524114     01 
000003    19990622    20001130    I0003       004800    FLORIDA PROGRESS CORP                                        PGN3        341109007    0000357261     4911      22111      01 
000003    19990624    20101219    I0003       014624    OFFICE DEPOT INC                                             ODP         676220106    0000800240     5940      453210     01 
000003    19990625           .    I0003       061591    NETAPP INC                                                   NTAP        64110D104    0001002047     3572      334112     01 
000003    19990630           .    I0003       002184    BEST BUY CO INC                                              BBY         086516101    0000764478     5731      443142     01 
000003    19990701           .    I0003       011228    VULCAN MATERIALS CO                                          VMC         929160109    0001396009     1400      212319     01 
000003    19990722           .    I0003       024800    QUALCOMM INC                                                 QCOM        747525103    0000804328     3674      334413     01 
000003    19990802    20070701    I0003       001013    ADC TELECOMMUNICATIONS INC                                   ADCT        000886309    0000061478     3661      334210     01 
000003    19990802    20081204    I0003       022140    ALLIED WASTE INDUSTRIES INC                                  AW          019589308    0000848865     4953      562111     02 
000003    19990809    20020902    I0003       114303    CONOCO INC                                                   COC1        208251504    0001066806     2911      324110     03 
000003    19990813    20120930    I0003       061552    LEXMARK INTL INC  -CL A                                      LXK         529771107    0001001288     3577      334118     01 
000003    19990920    20010917    I0003       010621    TOSCO CORP                                                   TOS.1       891490302    0000074091     2911      324110     02 
000003    19990929    20011009    I0003       113491    GLOBAL CROSSING LTD                                          GLBC        G3921A100    0001061322     4813      517110     01 
000003    19991001           .    I0003       025338    BED BATH & BEYOND INC                                        BBBY        075896100    0000886158     5700      442299     01 
000003    19991001    20010513    I0003       012256    STEEL EXCEL INC                                              SXCL        858122203    0000709804     1389      213112     01 
000003    19991004           .    I0003       001075    PINNACLE WEST CAPITAL CORP                                   PNW         723484101    0000764622     4911      2211       01 
000003    19991012           .    I0003       001632    ANALOG DEVICES                                               ADI         032654105    0000006281     3674      334413     01 
000003    19991013           .    I0003       012138    PRICE (T. ROWE) GROUP                                        TROW        74144T108    0001113169     6282      523930     01 
000003    19991018           .    I0003       006649    LEGGETT & PLATT INC                                          LEG         524660107    0000058492     2510      337910     01 
000003    19991026    20120524    I0003       004242    EL PASO CORP                                                 EP          28336L109    0001066107     4922      486210     01 
000003    19991027    20070131    I0003       012884    COMVERSE TECHNOLOGY INC                                      CMVT        205862402    0000803014     7372      511210     01 
000003    19991105    20101116    I0003       125533    PACTIV CORP                                                  PTV         695257105    0001089976     3089      326199     01 
000003    19991108           .    I0003       022325    XILINX INC                                                   XLNX        983919101    0000743988     3674      334413     01 
000003    19991115    20131222    I0003       010453    TERADYNE INC                                                 TER         880770102    0000097210     3825      334515     01 
000003    19991116    20030925    I0003       030095    QUINTILES TRANSNATIONAL CORP                                 0573B       748767100    0000919623     8731      541710     01 
000003    19991201           .    I0003       061676    CITRIX SYSTEMS INC                                           CTXS        177376100    0000877890     7372      511210     01 
000003    19991201    20131209    I0003       007506    MOLEX INC                                                    MOLX        608554101    0000067472     3678      334417     01 
000003    19991202    20010401    I0003       008118    OLD KENT FINANCIAL CORP                                      OK.2        679833103    0000746969     6020      522110     01 
000003    19991208    20170618    I0003       062634    ALTABA INC                                                   AABA        021346101    0001011006     7370      519130     01 
000003    19991231    20081218    I0003       028338    TRANSOCEAN LTD                                               RIG         H8817H100    0001451505     1381      213111     01 
000003    20000104    20070930    I0003       007648    NCR CORP                                                     NCR         62886E108    0000070866     7370      54151      01 
000003    20000106    20001002    I0003       110536    YOUNG & RUBICAM INC                                          YNR.1       987425105    0001030048     7311      541810     01 
000003    20000131           .    I0003       012389    HARLEY-DAVIDSON INC                                          HOG         412822108    0000793952     3751      336991     01 
000003    20000131    20020625    I0003       116526    CONEXANT SYSTEMS INC                                         CNXT.1      207142308    0001069353     3674      334413     01 
000003    20000131    20031112    I0003       002226    BIOGEN INC-OLD                                               BGEN        090597105    0000714655     2836      325414     01 
000003    20000316    20070401    I0003       063766    SABRE HOLDINGS CORP  -CL A                                   TSG.2       785905100    0001020265     7373      541512     01 
000003    20000403    20050704    I0003       029356    VERITAS SOFTWARE CORP                                        VRTS.1      923436109    0001084408     7372      511210     01 
000003    20000403    20170312    I0003       012216    LINEAR TECHNOLOGY CORP                                       LLTC        535678106    0000791907     3674      334413     01 
000003    20000418    20151228    I0003       014324    ALTERA CORP                                                  ALTR        021441100    0000768251     3674      334413     01 
000003    20000505    20020512    I0003       062602    SAPIENT CORP                                                 SAPE        803062108    0001008817     7373      541512     01 
000003    20000505    20060131    I0003       063180    SIEBEL SYSTEMS INC                                           SEBL        826170102    0001006835     7372      511210     01 
000003    20000510    20070926    I0003       014256    MAXIM INTEGRATED PRODUCTS                                    MXIM        57772K101    0000743316     3674      334413     01 
000003    20000601    20070214    I0003       014565    AMERICAN POWER CONVERSION CP                                 APCC.       029066107    0000835910     3620      335999     01 
000003    20000605           .    I0003       126554    AGILENT TECHNOLOGIES INC                                     A           00846U101    0001090872     3826      334516     01 
000003    20000608           .    I0003       025434    STARBUCKS CORP                                               SBUX        855244109    0000829224     5812      722513     01 
000003    20000613    20091220    I0003       113419    CONVERGYS CORP                                               CVG         212485106    0001062047     7389      561499     01 
000003    20000616    20070531    I0003       024008    MEDIMMUNE INC                                                MEDI        584699102    0000873591     2836      325414     01 
000003    20000619    20040831    I0003       016751    CHARTER ONE FINANCIAL INC                                    CF.6        160903100    0000819692     6020      522110     01 
000003    20000619    20120604    I0003       014623    NOVELLUS SYSTEMS INC                                         NVLS.1      670008101    0000836106     3559      333295     01 
000003    20000621           .    I0003       013646    TIFFANY & CO                                                 TIF         886547108    0000098246     5944      448310     01 
000003    20000621    20070701    I0003       028139    SANMINA CORP                                                 SANM        801056102    0000897723     3672      334412     01 
000003    20000629    20060102    I0003       136648    VISTEON CORP                                                 VC          92839U107    0001111335     3714      336320     01 
000003    20000629    20060103    I0003       029095    MERCURY INTERACTIVE CORP                                     MERQ        589405109    0000867058     7372      511210     01 
000003    20000703    20160131    I0003       066708    BROADCOM CORP                                                BRCM        111320107    0001054374     3674      334413     01 
000003    20000713    20111122    I0003       137232    JANUS CAPITAL GROUP INC                                      JNS         47102X105                   6282      523920     01 
000003    20000717    20010603    I0003       002549    CIT GROUP INC-OLD                                            CIT.1       125577106    0000020388     6172      522220     01 
000003    20000727    20131222    I0003       029241    VIAVI SOLUTIONS INC                                          VIAV        925550105    0000912093     3576      334210     01 
000003    20000728    20020813    I0003       132502    PALM INC                                                     PALM        696643105    0001100389     3571      334111     01 
000003    20000821    20070826    I0003       006799    KEYSPAN CORP                                                 KSE         49337W100    0001062379     4931      22111      01 
000003    20000830           .    I0003       014934    DEVON ENERGY CORP                                            DVN         25179M103    0001090012     1311      211111     01 
000003    20001002    20071025    I0003       139662    AVAYA INC                                                    5933B       053499109    0001116521     3663      334220     01 
000003    20001003           .    I0003       139665    MOODY'S CORP                                                 MCO         615369105    0001059556     7323      561450     01 
000003    20001003    20091220    I0003       025495    DYNEGY INC                                                   DYN         26817G300    0001379895     1311      221112     01 
000003    20001003    20101219    I0003       112033    KING PHARMACEUTICALS INC                                     KG          495582108    0001047699     2834      325412     01 
000003    20001018    20150322    I0003       001661    NABORS INDUSTRIES LTD                                        NBR         G6359F103    0001163739     1381      213111     01 
000003    20001023    20050313    I0003       065554    POWER-ONE INC                                                PWER        73930R102    0001042825     3679      3344       01 
000003    20001102           .    I0003       007974    NISOURCE INC                                                 NI          65473P105    0001111711     4932      221210     01 
000003    20001102           .    I0003       016478    EOG RESOURCES INC                                            EOG         26875P101    0000821189     1311      211111     01 
000003    20001106    20010903    I0003       063099    BROADVISION INC                                              BVSN        111412706    0000920448     7370      5415       01 
000003    20001117    20160922    I0003       005723    STARWOOD HOTELS&RESORTS WRLD                                 HOT         85590A401    0000316206     7011      721110     01 
000003    20001122    20140630    I0003       004843    FOREST LABORATORIES  -CL A                                   FRX         345838106    0000038074     2834      325412     01 
000003    20001124    20060419    I0003       003011    CHIRON CORP                                                  CHIR        170040109    0000706539     2834      325412     01 
000003    20001201    20051201    I0003       063605    CALPINE CORP                                                 CPN         131347106    0000916457     4991      22111      01 
000003    20001205           .    I0003       002312    ROBERT HALF INTL INC                                         RHI         770323103    0000315213     7363      561320     01 
000003    20001211           .    I0003       027928    INTUIT INC                                                   INTU        461202103    0000896878     7372      511210     01 
000003    20001211           .    I0003       133768    METLIFE INC                                                  MET         59156R108    0001099219     6311      524113     01 
000003    20001211    20070109    I0003       010232    SYMBOL TECHNOLOGIES                                          SBL.2       871508107    0000278352     3577      334119     01 
000003    20001211    20080610    I0003       024287    AMBAC FINANCIAL GROUP INC                                    AMBC        023139108    0000874501     6351      524126     01 
000003    20001211    20110227    I0003       001279    ALLEGHENY ENERGY INC                                         AYE         017361106    0000003673     4911      2211       01 
000003    20001212           .    I0003       010115    STRYKER CORP                                                 SYK         863667101    0000310764     3842      339113     01 
000003    20001212    20020820    I0003       024803    VITESSE SEMICONDUCTOR CORP                                   VTSS        928497304    0000880446     3674      334413     01 
000003    20001212    20070530    I0003       006310    KINDER MORGAN INC                                            KMI         49455P101    0001506307     4923      486210     01 
000003    20001212    20110117    I0003       029791    QLOGIC CORP                                                  QLGC        747277101    0000918386     3570      334118     01 
000003    20010102    20060517    I0003       065904    APPLIED MICRO CIRCUITS CORP                                  AMCC        03822W406    0000711065     3674      334413     01 
000003    20010116    20090326    I0003       011925    NOBLE CORP PLC                                               NE          G65431101    0001458891     1381      213111     01 
000003    20010130    20141104    I0003       028195    JABIL INC                                                    JBL         466313103    0000898293     3672      334412     01 
000003    20010207    20070328    I0003       063669    UNIVISION COMMUNICATIONS INC                                 5952B       914906102    0001017008     4833      515120     01 
000003    20010227    20170319    I0003       135484    FRONTIER COMMUNICATIONS CORP                                 FTR         35906A108    0000020520     4813      517110     01 
000003    20010301           .    I0003       003062    CINTAS CORP                                                  CTAS        172908105    0000723254     2320      315220     01 
000003    20010402           .    I0003       012635    FISERV INC                                                   FISV        337738108    0000798354     7374      518210     01 
000003    20010402    20040226    I0003       003373    CONCORD EFS INC                                              CE.2        206197105    0000740112     6099      522320     01 
000003    20010403    20030716    I0003       140033    GENON ENERGY INC                                             GEN.3       604675108    0001010775     4911      22111      01 
000003    20010514    20100228    I0003       119417    PEPSI BOTTLING GROUP INC                                     PBG         713409100    0001076405     2086      31211      01 
000003    20010604    20111218    I0003       064156    MONSTER WORLDWIDE INC                                        MWW         611742107    0001020416     7370      519130     01 
000003    20010625           .    I0003       011687    ZIONS BANCORPORATION                                         ZION        989701107    0000109380     6020      522110     01 
000003    20010628    20040428    I0003       128659    HANCOCK JOHN FINL SVCS INC                                   JHF         41014S106    0000736260     6311      524113     01 
000003    20010702           .    I0003       144066    ROCKWELL COLLINS INC                                         COL         774341101    0001137411     3728      336413     01 
000003    20010709    20041026    I0003       134845    AT&T WIRELESS SERVICES INC                                   AWE.2       00209A106    0001138234     4812      517212     01 
000003    20010803    20070701    I0003       023943    PMC-SIERRA INC                                               PMCS        69344F106    0000767920     3674      334413     01 
000003    20010806    20150708    I0003       004560    FAMILY DOLLAR STORES                                         FDO         307000109    0000034408     5331      452990     01 
000003    20010807           .    I0003       144559    ZIMMER BIOMET HOLDINGS INC                                   ZBH         98956P102    0001136869     3842      339113     01 
000003    20010830           .    I0003       031673    AMERISOURCEBERGEN CORP                                       ABC         03073E105    0001140859     5122      424210     01 
000003    20010830    20091220    I0003       064356    CIENA CORP                                                   CIEN        171779309    0000936395     3661      334210     01 
000003    20010904           .    I0003       024318    XL GROUP LTD                                                 XL          G98294104    0000875159     6351      524126     01 
000003    20010904    20140622    I0003       006097    INTL GAME TECHNOLOGY                                         IGT.1       459902102    0000353944     7990      713210     01 
000003    20010921    20020716    I0003       005885    IMMUNEX CORP                                                 IMNX        452528102                   2836      325414     01 
000003    20011010    20070211    I0003       065048    EQUITY OFFICE PROPERTIES TR                                  EOP         294741103    0001038339     6798      525930     01 
000003    20011010    20160630    I0003       010277    TECO ENERGY INC                                              TE          872375100    0000350563     4931      221112     01 
000003    20011107    20070301    I0003       012338    HEALTH MANAGEMENT ASSOC                                      HMA         421933102    0000792985     8062      622110     01 
000003    20011130           .    I0003       117768    NVIDIA CORP                                                  NVDA        67066G104    0001045810     3674      334413     01 
000003    20011203           .    I0003       028733    EQUITY RESIDENTIAL                                           EQR         29476L107    0000906107     6798      531110     01 
000003    20011214    20110403    I0003       012233    GENZYME CORP                                                 GENZ        372917104    0000732485     2836      325414     01 
000003    20011217    20090303    I0003       024032    JONES GROUP INC                                              JNY         48020T101    0000874016     2330      315210     01 
000003    20020102           .    I0003       061574    WATERS CORP                                                  WAT         941848103    0001000697     3826      334516     01 
000003    20020117    20160221    I0003       015709    PLUM CREEK TIMBER CO INC                                     PCL         729251108    0000849213     2400      113310     01 
000003    20020130    20080717    I0003       028034    CHUBB LTD                                                    CB          H1467J104    0000896159     6331      524126     01 
000003    20020201    20030223    I0003       011135    RATIONAL SOFTWARE CORP                                       RATL        75409P202    0000722056     7370      541519     01 
000003    20020211    20110705    I0003       007067    MARSHALL & ILSLEY CORP                                       MI.1        571837103    0001399315     6020      522110     01 
000003    20020506    20130623    I0003       004737    FIRST HORIZON NATIONAL CORP                                  FHN         320517105    0000036966     6020      522110     01 
000003    20020513    20080605    I0003       001567    TRANE INC                                                    TT.2        892893108    0000836102     3585      333415     02 
000003    20020515    20100429    I0003       022794    BJ SERVICES CO                                               BJS         055482103    0000864328     1389      213112     01 
000003    20020515    20130630    I0003       031122    APOLLO EDUCATION GROUP INC                                   8927B       037604105    0000929887     8200      611310     01 
000003    20020626           .    I0003       029389    SIMON PROPERTY GROUP INC                                     SPG         828806109    0001063761     6798      531120     01 
000003    20020717    20061130    I0003       015202    NORTH FORK BANCORPORATION                                    NFB         659424105    0000352510     6020      522110     01 
000003    20020722           .    I0003       010920    UNITED PARCEL SERVICE INC                                    UPS         911312106    0001090727     4210      492110     01 
000003    20020722           .    I0003       016721    ELECTRONIC ARTS INC                                          EA          285512109    0000712515     7372      511210     01 
000003    20020722           .    I0003       114524    EBAY INC                                                     EBAY        278642103    0001065088     7370      519130     01 
000003    20020722           .    I0003       114628    GOLDMAN SACHS GROUP INC                                      GS          38141G104    0000886982     6211      523110     01 
000003    20020722           .    I0003       143356    PRUDENTIAL FINANCIAL INC                                     PRU         744320102    0001137774     6311      524113     01 
000003    20020722           .    I0003       145701    PRINCIPAL FINANCIAL GRP INC                                  PFG         74251V102    0001126328     6282      523920     01 
000003    20020722    20050811    I0003       012144    SUNGARD DATA SYSTEMS INC                                     0139A       867363103    0000789388     7372      511210     01 
000003    20020725           .    I0003       145046    ANTHEM INC                                                   ANTM        036752103    0001156039     6324      524114     01 
000003    20020814           .    I0003       140760    MONSANTO CO                                                  MON         61166W101    0001110783     0100      111        01 
000003    20020821    20040504    I0003       062689    TRAVELERS COS INC                                            TRV         89417E109    0000086312     6331      524126     05 
000003    20020904           .    I0003       120877    REYNOLDS AMERICAN INC                                        RAI         761713106    0001275283     2111      312230     01 
000003    20021119           .    I0003       003226    COMCAST CORP                                                 CMCSA       20030N101    0001166691     4841      515210     01 
000003    20021212           .    I0003       064166    QUEST DIAGNOSTICS INC                                        DGX         74834L100    0001022079     8071      621511     01 
000003    20030224           .    I0003       009063    AUTONATION INC                                               AN          05329W102    0000350698     5500      441110     01 
000003    20030314           .    I0003       030490    APARTMENT INVST & MGMT CO                                    AIV         03748R101    0000922864     6798      531110     01 
000003    20030321           .    I0003       007146    MCCORMICK & CO INC                                           MKC         579780206    0000063754     2090      311942     01 
000003    20030331           .    I0003       015855    SYMANTEC CORP                                                SYMC        871503108    0000849399     7372      511210     01 
000003    20030416    20130101    I0003       066731    FEDERATED INVESTORS INC                                      FII         314211103    0001056288     6282      523930     01 
000003    20030717           .    I0003       029984    PROLOGIS INC                                                 PLD         74340W103    0001045609     6798      531120     01 
000003    20030820    20120403    I0003       007186    MEDCO HEALTH SOLUTIONS INC                                   MHS         58405U102    0001170650     5912      446110     02 
000003    20030926           .    I0003       025356    EXPRESS SCRIPTS HOLDING CO                                   ESRX        30219G108    0001532063     5912      446110     01 
000003    20031113           .    I0003       024468    BIOGEN INC                                                   BIIB        09062X103    0000875045     2836      325414     01 
000003    20040227           .    I0003       004699    M & T BANK CORP                                              MTB         55261F104    0000036270     6020      522110     01 
000003    20040325    20070322    I0003       031549    CAREMARK RX INC                                              CMX.1       141705103    0001000736     5912      446110     01 
000003    20040401           .    I0003       063501    E TRADE FINANCIAL CORP                                       ETFC        269246401    0001015780     6211      523120     01 
000003    20040402    20100207    I0003       030697    AFFILIATED COMPUTER SERVICES                                 ACS         008190100    0000002135     7374      518210     01 
000003    20040423           .    I0003       007637    MYLAN NV                                                     MYL         N59465109    0001623613     2834      325412     01 
000003    20040429           .    I0003       015247    VALERO ENERGY CORP                                           VLO         91913Y100    0001035002     2911      324110     01 
000003    20040503    20150902    I0003       160255    HOSPIRA INC                                                  HSP         441060100    0001274057     2834      325412     01 
000003    20040505           .    I0003       062689    TRAVELERS COS INC                                            TRV         89417E109    0000086312     6331      524126     05 
000003    20040701           .    I0003       024856    GILEAD SCIENCES INC                                          GILD        375558103    0000882095     2836      325414     01 
000003    20040701    20090129    I0003       017130    SANTANDER HOLDINGS USA INC                                   STD2        845905108    0000811830     6020      522110     01 
000003    20040803    20061109    I0003       013204    FISHER SCIENTIFIC INTL INC                                   FSH.2       338032204    0000880430     5040      423490     01 
000003    20040901           .    I0003       140541    COACH INC                                                    COH         189754104    0001116132     3100      316992     01 
000003    20041027    20090726    I0003       149738    CIT GROUP INC                                                CIT         125581108    0001171825     6172      522220     01 
000003    20041101           .    I0003       014960    LABORATORY CP OF AMER HLDGS                                  LH          50540R409    0000920148     8071      621511     01 
000003    20041201           .    I0003       110685    L3 TECHNOLOGIES INC                                          LLL         502413107    0001039101     3663      334220     01 
000003    20041203    20061203    I0003       157858    FREESCALE SEMICONDUCTOR INC                                  BX1         35687M206    0001272547     3674      334413     02 
000003    20041220           .    I0003       012886    TWENTY-FIRST CENTURY FOX INC                                 FOXA        90130A101    0001308161     4888      515210     04 
000003    20041220    20070906    I0003       002849    BBVA COMPASS BANCSHARES INC                                  BBVA1       20449H109    0001409775     6020      522110     01 
000003    20041220    20071007    I0003       008787    ARCHSTONE INC-REDH                                           ASN         039583109    0001555218     6798      531110     01 
000003    20041229    20100627    I0003       028256    XTO ENERGY INC                                               XTO         98385X106    0000868809     1311      211111     01 
000003    20050314           .    I0003       063892    NATIONAL OILWELL VARCO INC                                   NOV         637071101    0001021860     3533      333132     01 
000003    20050328    20120904    I0003       006307    SEARS HOLDINGS CORP                                          SHLD        812350106    0001310067     5311      452111     03 
000003    20050705           .    I0003       002710    CONSTELLATION BRANDS                                         STZ         21036P108    0000016918     2082      312120     02 
000003    20050705           .    I0003       025340    D R HORTON INC                                               DHI         23331A109    0000882184     1531      236117     01 
000003    20050722    20090225    I0003       004367    WEATHERFORD INTL PLC                                         WFT         G48833100    0001603923     1381      213111     01 
000003    20050811           .    I0003       010793    TYSON FOODS INC  -CL A                                       TSN         902494103    0000100493     2011      311611     01 
000003    20050812           .    I0003       011220    VORNADO REALTY TRUST                                         VNO         929042109    0000899689     6798      531120     01 
000003    20050815           .    I0003       007620    MURPHY OIL CORP                                              MUR         626717102    0000717423     1311      211111     01 
000003    20050819           .    I0003       010096    PUBLIC STORAGE                                               PSA         74460D109    0001393311     6798      531130     01 
000003    20050830    20130508    I0003       023877    COVENTRY HEALTH CARE INC                                     CVH         222862104    0001054833     6324      524114     01 
000003    20051003           .    I0003       164708    AMERIPRISE FINANCIAL INC                                     AMP         03076C106    0000820027     6211      523110     01 
000003    20051004           .    I0003       006669    LENNAR CORP                                                  LEN         526057104    0000920760     1531      236117     01 
000003    20051011           .    I0003       025880    PATTERSON COMPANIES INC                                      PDCO        703395103    0000891024     5047      423450     01 
000003    20051121           .    I0003       064768    AMAZON.COM INC                                               AMZN        023135106    0001018724     5961      454111     01 
000003    20051202    20151117    I0003       158354    GENWORTH FINANCIAL INC                                       GNW         37247D106    0001276520     6311      524113     01 
000003    20051220    20080630    I0003       014535    EW SCRIPPS  -CL A                                            SSP         811054402    0000832428     4833      515120     01 
000003    20060103           .    I0003       024893    WHOLE FOODS MARKET INC                                       WFM         966837106    0000865436     5411      445110     01 
000003    20060103           .    I0003       165675    VIACOM INC                                                   VIAB        92553P201    0001339947     4833      515120     01 
000003    20060105           .    I0003       061567    LAUDER (ESTEE) COS INC -CL A                                 EL          518439104    0001001250     2844      325620     01 
000003    20060201           .    I0003       066368    VERISIGN INC                                                 VRSN        92343E102    0001014473     7370      519130     01 
000003    20060201    20170315    I0003       012788    HARMAN INTERNATIONAL INDS                                    HAR         413086109    0000800459     3651      334310     01 
000003    20060227    20081222    I0003       013365    BARR PHARMACEUTICALS INC                                     BRL         068306109    0000010081     2834      325412     01 
000003    20060303           .    I0003       027786    CHESAPEAKE ENERGY CORP                                       CHK         165167107    0000895126     1311      211111     01 
000003    20060403           .    I0003       024731    KIMCO REALTY CORP                                            KIM         49446R109    0000879101     6798      531120     01 
000003    20060403           .    I0003       064925    BOSTON PROPERTIES INC                                        BXP         101121101    0001037540     6798      531120     01 
000003    20060403           .    I0003       160329    ALPHABET INC                                                 GOOGL       02079K305    0001652044     7370      519130     01 
000003    20060403    20130523    I0003       062655    DEAN FOODS CO                                                DF          242370203    0000931336     2020      311511     01 
000003    20060420    20160512    I0003       061513    SANDISK CORP                                                 SNDK        80004C101    0001000180     3572      334112     01 
000003    20060424    20161201    I0003       006653    LEGG MASON INC                                               LM          524901105    0000704051     6282      523920     01 
000003    20060518    20090630    I0003       174130    EMBARQ CORP                                                  EQ          29078E105    0001350031     4813      517110     01 
000003    20060602           .    I0003       121718    JUNIPER NETWORKS INC                                         JNPR        48203R104    0001043604     3576      334118     01 
000003    20060606    20080330    I0003       016784    COMMERCE BANCORP INC/NJ                                      CBH.1       200519106    0000715096     6020      522110     01 
000003    20060628    20160303    I0003       120093    CONSOL ENERGY INC                                            CNX         20854P109    0001070412     1220      212112     01 
000003    20060718    20150406    I0003       174490    WINDSTREAM HOLDINGS INC                                      WIN         97382A200    0001282266     4813      517110     01 
000003    20060801           .    I0003       174729    WYNDHAM WORLDWIDE CORP                                       WYN         98310W108    0001361658     6531      531390     01 
000003    20060801    20070409    I0003       174022    REALOGY HOLDINGS CORP                                        RLGY        75605E100    0001398987     6531      531210     01 
000003    20060811           .    I0003       149070    CME GROUP INC                                                CME         12572Q105    0001156375     6200      523210     01 
000003    20061002           .    I0003       175263    WESTERN UNION CO                                             WU          959802109    0001365135     6099      522320     01 
000003    20061002    20100826    I0003       009772    SMITH INTERNATIONAL INC                                      SII         832110100    0000721083     2890      325998     01 
000003    20061106           .    I0003       013599    CELGENE CORP                                                 CELG        151020104    0000816284     2834      325412     01 
000003    20061110           .    I0003       165993    FIDELITY NATIONAL INFO SVCS                                  FIS         31620M106    0001136893     7374      518210     01 
000003    20061110           .    I0003       260774    CBRE GROUP INC                                               CBG         12504L109    0001138118     6500      531        01 
000003    20061117           .    I0003       111864    COGNIZANT TECH SOLUTIONS                                     CTSH        192446102    0001058290     7370      541512     01 
000003    20061120    20140921    I0003       142460    PEABODY ENERGY CORP                                          BTU         704549203    0001064728     1220      212111     01 
000003    20061201    20080820    I0003       026061    IAC/INTERACTIVECORP                                          IAC         44919P508    0000891103     7370      519130     01 
000003    20061201    20100630    I0003       008873    QUESTAR CORP                                                 STR         748356102    0000751652     4923      221210     01 
000003    20061204    20150728    I0003       012206    DIRECTV                                                      DTV.2       25490A309    0001465112     4841      515210     01 
000003    20061220    20081105    I0003       007991    TEREX CORP                                                   TEX         880779103    0000097216     3530      333923     01 
000003    20070103    20170227    I0003       176282    SPECTRA ENERGY CORP                                          SE          847560109    0001373835     4923      221210     01 
000003    20070104    20091222    I0003       002270    ENSCO PLC                                                    ESV         G3157S106    0000314808     1381      213111     01 
000003    20070110           .    I0003       029875    AVALONBAY COMMUNITIES INC                                    AVB         053484101    0000915912     6798      531110     01 
000003    20070202           .    I0003       064891    RALPH LAUREN CORP                                            RL          751212101    0001037038     2320      31522      01 
000003    20070212           .    I0003       011115    VARIAN MEDICAL SYSTEMS INC                                   VAR         92220P105    0000203527     3845      334510     01 
000003    20070215    20151102    I0003       122015    HUDSON CITY BANCORP INC                                      HCBK        443683107    0000921847     6035      522120     01 
000003    20070222    20150630    I0003       011555    INTEGRYS HOLDING INC                                         WEC3        45822P105    0000916863     4931      2211       01 
000003    20070302           .    I0003       065609    C H ROBINSON WORLDWIDE INC                                   CHRW        12541W209    0001043277     4213      484121     01 
000003    20070320           .    I0003       007063    HOST HOTELS & RESORTS INC                                    HST         44107P104    0001070750     6798      531120     01 
000003    20070323    20090329    I0003       027780    DDR CORP                                                     DDR         23317H102    0000894315     6798      531120     01 
000003    20070329    20131222    I0003       063643    ABERCROMBIE & FITCH  -CL A                                   ANF         002896207    0001018840     5651      448140     01 
000003    20070402           .    I0003       142953    MONDELEZ INTERNATIONAL INC                                   MDLZ        609207105    0001103982     2000      311        01 
000003    20070410           .    I0003       157057    ASSURANT INC                                                 AIZ         04621X108    0001267238     6351      524126     01 
000003    20070531    20111218    I0003       060992    SUNEDISON INC                                                SUNEQ       86732Y109    0000945436     3620      335999     01 
000003    20070601    20160131    I0003       008717    PRECISION CASTPARTS CORP                                     PCP         740189105    0000079958     3728      336413     01 
000003    20070702           .    I0003       177376    DISCOVER FINANCIAL SVCS                                      DFS         254709108    0001393612     6141      522210     02 
000003    20070702    20081112    I0003       028119    GGP INC                                                      GGP         36174X101    0001496048     6798      531120     01 
000003    20070702    20090604    I0003       177264    COVIDIEN PLC                                                 COV         G2554F113    0001385187     3845      334510     02 
000003    20070702    20090625    I0003       177267    TE CONNECTIVITY LTD                                          TEL         H84989104    0001385157     3678      334417     02 
000003    20070709    20090303    I0003       065345    AMERICAN CAPITAL LTD                                         ACAS        02503Y103    0000817473     6797      523999     01 
000003    20070712           .    I0003       125595    AKAMAI TECHNOLOGIES INC                                      AKAM        00971T101    0001086222     7370      519130     01 
000003    20070827           .    I0003       006682    LEUCADIA NATIONAL CORP                                       LUK         527288104    0000096223     2011      311611     01 
000003    20070907           .    I0003       027965    MICROCHIP TECHNOLOGY INC                                     MCHP        595017104    0000827054     3674      334413     01 
000003    20070926           .    I0003       163610    INTERCONTINENTAL EXCHANGE                                    ICE         45866F104    0001571949     6200      523999     01 
000003    20070927           .    I0003       010466    TESORO CORP                                                  TSO         881609101    0000050104     2911      324110     01 
000003    20071001    20170618    I0003       178310    TERADATA CORP                                                TDC         88076W103    0000816761     7370      54151      01 
000003    20071002           .    I0003       126296    EXPEDIA INC                                                  EXPE        30212P303    0001324424     4700      561510     02 
000003    20071008           .    I0003       007912    NOBLE ENERGY INC                                             NBL         655044105    0000072207     1311      211111     01 
000003    20071010           .    I0003       004494    EXPEDITORS INTL WASH INC                                     EXPD        302130109    0000746515     4731      488510     01 
000003    20071025    20131112    I0003       166451    NYSE EURONEXT                                                NYX         629491101    0001368007     6200      523210     01 
000003    20071026           .    I0003       006216    JACOBS ENGINEERING GROUP INC                                 JEC         469814107    0000052988     1600      236210     01 
000003    20071029    20121223    I0003       062984    TITANIUM METALS CORP                                         TIE         888339207    0001011657     3350      331491     01 
000003    20071109    20160329    I0003       008694    PEPCO HOLDINGS INC                                           POM         713291102    0001135971     4911      2211       01 
000003    20071116    20090831    I0003       006994    MANITOWOC CO                                                 MTW         563571108    0000061986     3530      333923     01 
000003    20071119           .    I0003       105365    AMERICAN TOWER CORP                                          AMT         03027X100    0001053507     6798      531120     01 
000003    20071214    20160424    I0003       145049    GAMESTOP CORP                                                GME         36467W109    0001326380     5734      443142     01 
000003    20071221           .    I0003       006788    RANGE RESOURCES CORP                                         RRC         75281A109    0000315852     1311      211111     01 
000003    20071231    20140921    I0003       011300    GRAHAM HOLDINGS CO                                           GHC         384637104    0000104889     8200      611691     01 
000003    20080102           .    I0003       010631    TOTAL SYSTEM SERVICES INC                                    TSS         891906109    0000721683     7389      522320     01 
000003    20080129    20160403    I0003       060894    CAMERON INTERNATIONAL CORP                                   CAM         13342B105    0000941548     3533      333132     01 
000003    20080331           .    I0003       013125    HCP INC                                                      HCP         40414L109    0000765880     6798      531120     01 
000003    20080331           .    I0003       179621    PHILIP MORRIS INTERNATIONAL                                  PM          718172109    0001413329     2111      312230     01 
000003    20080602           .    I0003       136725    INTUITIVE SURGICAL INC                                       ISRG        46120E602    0001035267     3845      334510     01 
000003    20080606    20170403    I0003       009904    SOUTHWESTERN ENERGY CO                                       SWN         845467109    0000007332     4923      211111     01 
000003    20080611    20150611    I0003       147175    LORILLARD INC                                                LO          544147101    0001424847     2111      312230     01 
000003    20080623           .    I0003       020548    CABOT OIL & GAS CORP                                         COG         127097103    0000858470     1311      211111     01 
000003    20080623    20110601    I0003       141400    MASSEY ENERGY CO                                             MEE         576206106    0000037748     1220      212112     01 
000003    20080701           .    I0003       180167    SCRIPPS NETWORKS INTERACTIVE                                 SNI         811065101    0001430602     4833      515120     01 
000003    20080701    20111218    I0003       029968    AK STEEL HOLDING CORP                                        AKS         001547108    0000918160     3312      331110     01 
000003    20080718           .    I0003       160225    MASTERCARD INC                                               MA          57636Q104    0001141391     6099      522320     01 
000003    20080731           .    I0003       061483    DAVITA INC                                                   DVA         23918K108    0000927066     8090      621492     01 
000003    20080821           .    I0003       029804    INVESCO LTD                                                  IVZ         G491BT108    0000914208     6282      523920     02 
000003    20080827           .    I0003       163946    CF INDUSTRIES HOLDINGS INC                                   CF          125269100    0001324404     2870      325311     01 
000003    20080915           .    I0003       014225    FASTENAL CO                                                  FAST        311900104    0000815556     5200      444130     01 
000003    20080915           .    I0003       157855    SALESFORCE.COM INC                                           CRM         79466L302    0001108524     7372      511210     01 
000003    20080922           .    I0003       005492    HARRIS CORP                                                  HRS         413875105    0000202058     7370      518210     01 
000003    20080924           .    I0003       014359    PIONEER NATURAL RESOURCES CO                                 PXD         723787107    0001038357     1311      211111     02 
000003    20080930           .    I0003       014282    AMPHENOL CORP                                                APH         032095101    0000820313     3678      334417     01 
000003    20081002           .    I0003       004108    FLOWSERVE CORP                                               FLS         34354P105    0000030625     3561      333911     01 
000003    20081007           .    I0003       179700    DR PEPPER SNAPPLE GROUP INC                                  DPS         26138E109    0001418135     2086      312111     01 
000003    20081022           .    I0003       149337    NASDAQ INC                                                   NDAQ        631103108    0001120193     6200      523210     01 
000003    20081031           .    I0003       011550    WEC ENERGY GROUP INC                                         WEC         92939U106    0000783325     4931      2211       01 
000003    20081106           .    I0003       009777    SMUCKER (JM) CO                                              SJM         832696405    0000091419     2033      311421     01 
000003    20081113           .    I0003       016245    PEOPLE'S UNITED FINL INC                                     PBCT        712704105    0001378946     6036      522120     01 
000003    20081114           .    I0003       013700    DENTSPLY SIRONA INC                                          XRAY        24906P109    0000818479     3843      339114     01 
000003    20081114           .    I0003       149318    WYNN RESORTS LTD                                             WYNN        983134107    0001174922     7990      721120     01 
000003    20081117    20111016    I0003       023945    CEPHALON INC                                                 CEPH        156708109    0000873364     2834      325412     01 
000003    20081119           .    I0003       063527    STERICYCLE INC                                               SRCL        858912108    0000861878     4955      562211     01 
000003    20081124    20140123    I0003       118577    LIFE TECHNOLOGIES CORP                                       LIFE.3      53217V109    0001073431     2836      325414     01 
000003    20081202    20170404    I0003       004094    DUN & BRADSTREET CORP                                        DNB         26483E100    0001115222     7323      561450     01 
000003    20081205           .    I0003       112168    REPUBLIC SERVICES INC                                        RSG         760759100    0001060391     4953      562111     01 
000003    20081219           .    I0003       004430    EQT CORP                                                     EQT         26884L109    0000033213     4923      221210     01 
000003    20081223    20110228    I0003       025783    MCAFEE INC                                                   MFE         579064106    0000890801     7372      511210     01 
000003    20090102           .    I0003       009445    SCANA CORP                                                   SCG         80589M102    0000754737     4931      22111      01 
000003    20090102           .    I0003       028477    FLIR SYSTEMS INC                                             FLIR        302445101    0000354908     3812      334511     01 
000003    20090102    20161201    I0003       008215    OWENS-ILLINOIS INC                                           OI          690768403    0000812074     3221      327213     02 
000003    20090106           .    I0003       062374    IRON MOUNTAIN INC                                            IRM         46284V101    0001020569     6798      531120     01 
000003    20090130           .    I0003       005543    WELLTOWER INC                                                HCN         95040Q104    0000766704     6798      531110     01 
000003    20090226    20161002    I0003       061409    DIAMOND OFFSHRE DRILLING INC                                 DO          25271C102    0000949039     1381      213111     01 
000003    20090304           .    I0003       005709    HORMEL FOODS CORP                                            HRL         440452100    0000048465     2011      311611     01 
000003    20090304           .    I0003       110179    VENTAS INC                                                   VTR         92276F100    0000740260     6798      531110     01 
000003    20090317           .    I0003       007970    EVERSOURCE ENERGY                                            ES          30040W108    0000072741     4931      2211       01 
000003    20090327           .    I0003       028180    O'REILLY AUTOMOTIVE INC                                      ORLY        67103H107    0000898173     5531      441310     01 
000003    20090330    20160517    I0003       176404    TIME WARNER CABLE INC                                        TWC         88732J207    0001377013     4841      515210     01 
000003    20090402    20150322    I0003       020653    DENBURY RESOURCES INC                                        DNR         247916208    0000945764     1311      211111     01 
000003    20090605    20170116    I0003       142811    FMC TECHNOLOGIES INC                                         FTI.1       30249U101    0001135152     3533      333132     01 
000003    20090609    20120930    I0003       003905    ADTALEM GLOBAL EDUCATION INC                                 ATGE        00737L103    0000730464     8200      611310     01 
000003    20090630    20130430    I0003       160256    METROPCS COMMUNICATIONS INC                                  PCS         591708102                   4812      517212     01 
000003    20090701           .    I0003       011399    WESTERN DIGITAL CORP                                         WDC         958102105    0000106040     3572      334112     01 
000003    20090701           .    I0003       066446    QUANTA SERVICES INC                                          PWR         74762E102    0001050915     1731      238210     01 
000003    20090727           .    I0003       122841    RED HAT INC                                                  RHT         756577102    0001087423     7372      511210     01 
000003    20090819           .    I0003       004510    FMC CORP                                                     FMC         302491303    0000037785     2870      325320     01 
000003    20090901    20150317    I0003       183257    CAREFUSION CORP                                              CFN         14170T101    0001457543     3841      339112     01 
000003    20090909    20160522    I0003       012950    AIRGAS INC                                                   ARG         009363102    0000804212     5084      423830     01 
000003    20091016    20170319    I0003       175404    FIRST SOLAR INC                                              FSLR        336433107    0001274494     3674      334413     01 
000003    20091106           .    I0003       119314    PRICELINE GROUP INC                                          PCLN        741503403    0001075531     7370      519130     01 
000003    20091221           .    I0003       009248    ROSS STORES INC                                              ROST        778296103    0000745732     5651      448140     01 
000003    20091221           .    I0003       179534    VISA INC                                                     V           92826C839    0001403161     6099      522320     01 
000003    20091221    20130922    I0003       165123    LEIDOS HOLDINGS INC                                          LDOS        525327102    0001336920     7373      541512     01 
000003    20091221    20140401    I0003       003107    CLIFFS NATURAL RESOURCES INC                                 CLF         18683K101    0000764065     1000      212210     01 
000003    20091221    20170618    I0003       180833    MEAD JOHNSON NUTRITION CO                                    MJN         582839106    0001452575     2020      311514     01 
000003    20091223           .    I0003       024925    ROPER TECHNOLOGIES INC                                       ROP         776696106    0000882835     3823      334513     01 
000003    20100129           .    I0003       135990    NRG ENERGY INC                                               NRG         629377508    0001013871     4911      22111      03 
000003    20100208    20170319    I0003       029150    URBAN OUTFITTERS INC                                         URBN        917047102    0000912615     5651      448140     01 
000003    20100216           .    I0003       002176    BERKSHIRE HATHAWAY                                           BRK.B       084670702    0001067983     9997      999977     02 
000003    20100301           .    I0003       005581    HELMERICH & PAYNE                                            HP          423452101    0000046765     1381      213111     01 
000003    20100301           .    I0003       164296    DISCOVERY COMMUNICATIONS INC                                 DISCA       25470F104    0001437107     4841      515210     01 
000003    20100315           .    I0003       008151    ONEOK INC                                                    OKE         682680103    0001039684     4923      221210     01 
000003    20100430           .    I0003       012850    CERNER CORP                                                  CERN        156782104    0000804753     7373      541512     01 
000003    20100628           .    I0003       064410    CARMAX INC                                                   KMX         143130102    0001170010     5500      441120     01 
000003    20100701    20150630    I0003       154357    QEP RESOURCES INC                                            QEP         74733V100    0001108827     1311      211111     01 
000003    20100715           .    I0003       028034    CHUBB LTD                                                    CB          H1467J104    0000896159     6331      524126     01 
000003    20100827    20160905    I0003       010787    TYCO INTERNATIONAL PLC                                       TYC         G91442106    0001608109     3669      334290     01 
000003    20101117           .    I0003       005959    INGERSOLL-RAND PLC                                           IR          G47791101    0001466258     3560      333912     01 
000003    20101220           .    I0003       029173    NEWFIELD EXPLORATION CO                                      NFX         651290108    0000912750     1311      211111     01 
000003    20101220           .    I0003       121077    F5 NETWORKS INC                                              FFIV        315616102    0001048695     7373      541512     01 
000003    20101220           .    I0003       147579    NETFLIX INC                                                  NFLX        64110L106    0001065280     7841      532230     01 
000003    20101220    20160623    I0003       012485    ALTICE USA INC                                               ATUS        12686C109    0001053112     4841      515210     01 
000003    20110104    20120524    I0003       186106    MOTOROLA MOBILITY HLDGS INC                                  MMI.3       620097105    0001495569     3663      334220     01 
000003    20110118    20150719    I0003       011925    NOBLE CORP PLC                                               NE          G65431101    0001458891     1381      213111     01 
000003    20110228    20151007    I0003       013003    JOY GLOBAL INC                                               JOY         481165108    0000801898     3532      333131     02 
000003    20110301    20150126    I0003       177264    COVIDIEN PLC                                                 COV         G2554F113    0001385187     3845      334510     02 
000003    20110401           .    I0003       133366    EDWARDS LIFESCIENCES CORP                                    EW          28176E108    0001099800     3842      339113     01 
000003    20110404           .    I0003       124434    BLACKROCK INC                                                BLK         09247X101    0001364742     6282      523920     01 
000003    20110428           .    I0003       165914    CHIPOTLE MEXICAN GRILL INC                                   CMG         169656105    0001058090     5812      722513     01 
000003    20110602    20121001    I0003       162448    ALPHA NATURAL RESOURCES INC                                  ANRZQ       02076X102    0001301063     1220      2121       01 
000003    20110701           .    I0003       186989    MARATHON PETROLEUM CORP                                      MPC         56585A102    0001510295     2911      324110     01 
000003    20110706           .    I0003       143357    ACCENTURE PLC                                                ACN         G1151C101    0001467373     8742      541611     01 
000003    20110926           .    I0003       162129    MOSAIC CO                                                    MOS         61945C103    0001285785     2870      325312     01 
000003    20111017           .    I0003       177267    TE CONNECTIVITY LTD                                          TEL         H84989104    0001385157     3678      334417     02 
000003    20111101           .    I0003       189491    XYLEM INC                                                    XYL         98419M100    0001524472     3561      333911     01 
000003    20111123    20121202    I0003       003497    COOPER INDUSTRIES PLC                                        CBE         G24140108    0001141982     3640      3351       01 
000003    20111213    20160630    I0003       001837    SOUTHERN CO GAS                                              SO7         001204106    0001004155     4924      221210     01 
000003    20111219           .    I0003       024782    PERRIGO CO PLC                                               PRGO        G97822103    0001585364     2834      325412     01 
000003    20111219           .    I0003       028742    BORGWARNER INC                                               BWA         099724106    0000908255     3714      336310     01 
000003    20111219           .    I0003       031587    DOLLAR TREE INC                                              DLTR        256746108    0000935703     5331      452990     01 
000003    20111221           .    I0003       199356    TRIPADVISOR INC                                              TRIP        896945201    0001526520     7370      519130     01 
000003    20120103    20140323    I0003       187128    WPX ENERGY INC                                               WPX         98212B103    0001518832     1311      211111     01 
000003    20120314           .    I0003       113490    CROWN CASTLE INTL CORP                                       CCI         22822V101    0001051470     6798      531120     01 
000003    20120404    20160104    I0003       028118    FOSSIL GROUP INC                                             FOSL        34988V106    0000883569     3873      334519     01 
000003    20120501           .    I0003       170841    PHILLIPS 66                                                  PSX         718546104    0001534701     2911      324110     01 
000003    20120525           .    I0003       006310    KINDER MORGAN INC                                            KMI         49456B101    0001506307     4923      486210     04 
000003    20120525           .    I0003       062263    ALEXION PHARMACEUTICALS INC                                  ALXN        015351109    0000899866     2836      325414     01 
000003    20120605           .    I0003       006565    LAM RESEARCH CORP                                            LRCX        512807108    0000707549     3559      333242     01 
000003    20120629           .    I0003       024316    MONSTER BEVERAGE CORP                                        MNST        61174X109    0000865752     2086      312111     01 
000003    20120702           .    I0003       150937    SEAGATE TECHNOLOGY PLC                                       STX         G7945M107    0001137789     3572      334112     01 
000003    20120731    20160329    I0003       002270    ENSCO PLC                                                    ESV         G3157S106    0000314808     1381      213111     01 
000003    20120905           .    I0003       294524    LYONDELLBASELL INDUSTRIES NV                                 LYB         N53745100    0001489393     2820      325220     01 
000003    20121001           .    I0003       008463    PENTAIR PLC                                                  PNR         G7S00T104    0000077360     3561      333911     01 
000003    20121001    20160502    I0003       014438    ADT CORP                                                     ADT         00101J106    0001546640     7380      561612     01 
000003    20121002    20150702    I0003       012978    KRAFT FOODS GROUP INC                                        KRFT        50076Q106    0001545158     2000      311        01 
000003    20121005    20150311    I0003       028648    PETSMART INC                                                 PETM        716768106    0000863157     5990      453910     01 
000003    20121203           .    I0003       004016    DOLLAR GENERAL CORP                                          DG          256677105    0000029534     5331      452990     02 
000003    20121212           .    I0003       141459    GARMIN LTD                                                   GRMN        H2906T109    0001121788     3812      334511     01 
000003    20121224           .    I0003       118122    DELPHI AUTOMOTIVE PLC                                        DLPH        G27823106    0001521332     3714      336320     04 
000003    20130102           .    I0003       016101    ABBVIE INC                                                   ABBV        00287Y109    0001551152     2836      325414     01 
000003    20130214           .    I0003       008551    PVH CORP                                                     PVH         693656100    0000078239     2300      315        01 
000003    20130501           .    I0003       023812    REGENERON PHARMACEUTICALS                                    REGN        75886F107    0000872589     2834      325412     01 
000003    20130509           .    I0003       029868    MACERICH CO                                                  MAC         554382101    0000912242     6798      531120     01 
000003    20130524           .    I0003       006335    KANSAS CITY SOUTHERN                                         KSU         485170302    0000054480     4011      482111     01 
000003    20130607           .    I0003       005073    GENERAL MOTORS CO                                            GM          37045V100    0001467858     3711      33611      19 
000003    20130624           .    I0003       013721    ZOETIS INC                                                   ZTS         98978V103    0001555280     2834      325412     01 
000003    20130701           .    I0003       018043    NEWS CORP                                                    NWSA        65249B109    0001564708     2711      511110     01 
000003    20130709           .    I0003       100873    NIELSEN HOLDINGS NV                                          NLSN        G6518L108    0001492633     8700      541910     03 
000003    20130911           .    I0003       003851    DELTA AIR LINES INC                                          DAL         247361702    0000027904     4512      481111     03 
000003    20130923           .    I0003       001598    AMETEK INC                                                   AME         031100100    0001037868     3823      334513     01 
000003    20130923           .    I0003       024344    VERTEX PHARMACEUTICALS INC                                   VRTX        92532F100    0000875320     2834      325412     01 
000003    20131029           .    I0003       028338    TRANSOCEAN LTD                                               RIG         H8817H100    0001451505     1381      213111     01 
000003    20131113           .    I0003       198058    MICHAEL KORS HOLDINGS LTD                                    KORS        G60754101    0001530721     2300      315        01 
000003    20131202           .    I0003       316056    ALLEGION PLC                                                 ALLE        G0176J109    0001579241     3420      332510     01 
000003    20131210           .    I0003       028119    GGP INC                                                      GGP         36174X101    0001496048     6798      531120     01 
000003    20131223           .    I0003       025119    MOHAWK INDUSTRIES INC                                        MHK         608190104    0000851968     2273      314110     01 
000003    20131223           .    I0003       143974    ALLIANCE DATA SYSTEMS CORP                                   ADS         018581108    0001101215     7374      518210     01 
000003    20131223           .    I0003       170617    FACEBOOK INC                                                 FB          30303M102    0001326801     7370      519130     01 
000003    20140124           .    I0003       029736    TRACTOR SUPPLY CO                                            TSCO        892356106    0000916365     5200      453998     01 
000003    20140324    20160306    I0003       028877    KEURIG GREEN MOUNTAIN INC                                    GMCR        49271M100    0000909954     2090      311920     01 
000003    20140402           .    I0003       030293    ESSEX PROPERTY TRUST                                         ESS         297178105    0000920522     6798      531110     01 
000003    20140403           .    I0003       160329    ALPHABET INC                                                 GOOGL       02079K107    0001652044     7370      519130     03 
000003    20140501           .    I0003       165052    UNDER ARMOUR INC                                             UAA         904311107    0001336917     2300      315        01 
000003    20140508           .    I0003       180711    BROADCOM LTD                                                 AVGO        Y09827109    0001649338     3674      334413     01 
000003    20140623           .    I0003       150699    CIMAREX ENERGY CO                                            XEC         171798101    0001168054     1311      211111     01 
000003    20140701           .    I0003       065886    AFFILIATED MANAGERS GRP INC                                  AMG         008252108    0001004434     6282      523920     01 
000003    20140702           .    I0003       029733    MARTIN MARIETTA MATERIALS                                    MLM         573284106    0000916076     1400      212313     01 
000003    20140807           .    I0003       164296    DISCOVERY COMMUNICATIONS INC                                 DISCA       25470F302    0001437107     4841      515210     03 
000003    20140819           .    I0003       018086    MALLINCKRODT PLC                                             MNK         G5785G107    0001567892     2834      325412     01 
000003    20140922           .    I0003       011032    UNIVERSAL HEALTH SVCS INC                                    UHS         913903100    0000352915     8062      622110     01 
000003    20140922           .    I0003       066065    UNITED RENTALS INC                                           URI         911363109    0001067701     7350      532412     01 
000003    20141105           .    I0003       013440    LEVEL 3 COMMUNICATIONS INC                                   LVLT        52729N308    0000794323     4813      517110     03 
000003    20141205           .    I0003       028191    ROYAL CARIBBEAN CRUISES LTD                                  RCL         V7780T103    0000884887     4400      483112     01 
000003    20150127           .    I0003       022260    HCA HEALTHCARE INC                                           HCA         40412C101    0000860730     8062      622110     04 
000003    20150127    20170301    I0003       063645    ENDO INTERNATIONAL PLC                                       ENDP        G30401106    0001593034     2834      325412     01 
000003    20150312           .    I0003       001327    SKYWORKS SOLUTIONS INC                                       SWKS        83088M102    0000004127     3674      334413     01 
000003    20150318           .    I0003       061494    SCHEIN (HENRY) INC                                           HSIC        806407102    0001000228     5047      423450     01 
000003    20150323           .    I0003       001045    AMERICAN AIRLINES GROUP INC                                  AAL         02376R102    0000006201     4512      481111     04 
000003    20150323           .    I0003       065290    SL GREEN REALTY CORP                                         SLG         78440X101    0001040971     6798      531120     01 
000003    20150323           .    I0003       138743    EQUINIX INC                                                  EQIX        29444U700    0001101239     6798      531120     01 
000003    20150323           .    I0003       175319    HANESBRANDS INC                                              HBI         410345102    0001359841     2250      315190     01 
000003    20150407           .    I0003       030822    REALTY INCOME CORP                                           O           756109104    0000726728     6798      531120     01 
000003    20150612           .    I0003       064853    QORVO INC                                                    QRVO        74736K101    0001604778     3674      334413     01 
000003    20150701           .    I0003       005783    HUNT (JB) TRANSPRT SVCS INC                                  JBHT        445658107    0000728535     4213      484121     01 
000003    20150701    20160602    I0003       022734    BAXALTA INC                                                  BXLT        07177M103    0001620546     2836      325414     01 
000003    20150702           .    I0003       029830    WESTROCK CO                                                  WRK         96145D105    0001636023     2650      322211     01 
000003    20150702    20160705    I0003       023827    COLUMBIA PIPELINE GROUP INC                                  CPGX        198280109    0001629995     4922      486210     01 
000003    20150703           .    I0003       005568    KRAFT HEINZ CO                                               KHC         500754106    0001637459     2030      31142      04 
000003    20150709           .    I0003       145977    ADVANCE AUTO PARTS INC                                       AAP         00751Y106    0001158449     5531      441310     01 
000003    20150720           .    I0003       024616    PAYPAL HOLDINGS INC                                          PYPL        70450Y103    0001633917     7374      518210     01 
000003    20150729           .    I0003       015520    SIGNET JEWELERS LTD                                          SIG         G81276100    0000832988     5944      448310     01 
000003    20150831           .    I0003       180405    ACTIVISION BLIZZARD INC                                      ATVI        00507V109    0000718877     7372      511210     01 
000003    20150903           .    I0003       010795    UNITED CONTINENTAL HLDGS INC                                 UAL         910047109    0000100517     4512      481111     04 
000003    20150921           .    I0003       012886    TWENTY-FIRST CENTURY FOX INC                                 FOXA        90130A200    0001308161     4888      515210     01 
000003    20150921           .    I0003       018043    NEWS CORP                                                    NWSA        65249B208    0001564708     2711      511110     02 
000003    20150921    20151213    I0003       003226    COMCAST CORP                                                 CMCSA       20030N200    0001166691     4841      515210     02 
000003    20151008           .    I0003       180652    VERISK ANALYTICS INC                                         VRSK        92345Y106    0001442145     6411      524298     01 
000003    20151102           .    I0003       026156    HEWLETT PACKARD ENTERPRISE                                   HPE         42824C109    0001645590     7370      541512     01 
000003    20151110    20151110    I0003       026410    FOUR CORNERS PROPERTY TR INC                                 FCPT        35086T109    0001650132     6798      531120     01 
000003    20151118           .    I0003       020686    SYNCHRONY FINANCIAL                                          SYF         87165B103    0001601712     6141      522210     01 
000003    20151119           .    I0003       138205    ILLUMINA INC                                                 ILMN        452327109    0001110803     3826      334516     01 
000003    20151130           .    I0003       026304    CSRA INC                                                     CSRA        12650T104    0001646383     7370      54151      01 
000003    20151229           .    I0003       003026    CHURCH & DWIGHT INC                                          CHD         171340102    0000313927     2840      325611     01 
000003    20160105           .    I0003       144009    WILLIS TOWERS WATSON PLC                                     WLTW        G96629103    0001140536     6411      524210     01 
000003    20160119           .    I0003       160479    EXTRA SPACE STORAGE INC                                      EXR         30225T102    0001289490     6798      531130     01 
000003    20160201           .    I0003       004605    FEDERAL REALTY INVESTMENT TR                                 FRT         313747206    0000034903     6798      531120     01 
000003    20160201           .    I0003       021825    CITIZENS FINANCIAL GROUP INC                                 CFG         174610105    0000759944     6020      522110     01 
000003    20160222           .    I0003       177884    CONCHO RESOURCES INC                                         CXO         20605P101    0001358071     1311      211111     01 
000003    20160304           .    I0003       179437    AMERICAN WATER WORKS CO INC                                  AWK         030420103    0001410636     4941      221310     01 
000003    20160307           .    I0003       010894    UDR INC                                                      UDR         902653104    0000074208     6798      531110     01 
000003    20160330           .    I0003       020904    HOLOGIC INC                                                  HOLX        436440101    0000859737     3844      334517     01 
000003    20160330           .    I0003       145552    CENTENE CORP                                                 CNC         15135B101    0001071739     6324      524114     01 
000003    20160404           .    I0003       011584    FOOT LOCKER INC                                              FL          344849104    0000850209     5661      448210     01 
000003    20160408           .    I0003       165052    UNDER ARMOUR INC                                             UAA         904311206    0001336917     2300      315        03 
000003    20160418           .    I0003       178704    ULTA BEAUTY INC                                              ULTA        90384S303    0001403568     5990      446120     01 
000003    20160425           .    I0003       141913    GLOBAL PAYMENTS INC                                          GPN         37940X102    0001123360     7374      518210     01 
000003    20160503           .    I0003       146017    ACUITY BRANDS INC                                            AYI         00508Y102    0001144215     3640      335122     01 
000003    20160513           .    I0003       001230    ALASKA AIR GROUP INC                                         ALK         011659109    0000766421     4512      481111     01 
000003    20160513    20160515    I0003       024609                                                                                                                              01 
000003    20160516    20160516    I0003       027119    INGEVITY CORP                                                NGVT        45688C107    0001653477     2860      3251       01 
000003    20160518           .    I0003       160991    DIGITAL REALTY TRUST INC                                     DLR         253868103    0001297996     6798      531120     01 
000003    20160523           .    I0003       155394    LKQ CORP                                                     LKQ         501889208    0001065696     5010      423140     02 
000003    20160531           .    I0003       004973    ARTHUR J GALLAGHER & CO                                      AJG         363576109    0000354190     6411      524210     01 
000003    20160603           .    I0003       148349    TRANSDIGM GROUP INC                                          TDG         893641100    0001260221     3728      336413     01 
000003    20160624           .    I0003       188255    FORTUNE BRANDS HOME & SECUR                                  FBHS        34964C106    0001519751     2430      337110     01 
000003    20160701           .    I0003       011554    ALLIANT ENERGY CORP                                          LNT         018802108    0000352541     4931      22111      01 
000003    20160701           .    I0003       029751    ALBEMARLE CORP                                               ALB         012653101    0000915913     2810      325180     01 
000003    20160705           .    I0003       026590    FORTIVE CORP                                                 FTV         34959J108    0001659166     3829      334519     01 
000003    20160906           .    I0003       065772    METTLER-TOLEDO INTL INC                                      MTD         592688105    0001037646     3826      334516     01 
000003    20160907    20160907    I0003       014489    DELL TECHNOLOGIES INC                                        DVMT        24703L103    0001571996     3571      334111     02 
000003    20160908           .    I0003       126136    CHARTER COMMUNICATIONS INC                                   CHTR        16119P108    0001091667     4841      515210     03 
000003    20160923           .    I0003       003504    COOPER COMPANIES INC                                         COO         216648402    0000711404     3851      339115     01 
000003    20161003           .    I0003       012151    COTY INC                                                     COTY        222070203    0001024305     2844      325620     01 
000003    20161003    20161003    I0003       026709    VERSUM MATERIALS INC                                         VSM         92532W103    0001660690     2860      325199     01 
000003    20161003    20161003    I0003       028070    ADVANSIX INC                                                 ASIX        00773T101    0001673985     2820      325220     01 
000003    20161031    20161031    I0003       027333    ADIENT PLC                                                   ADNT        G0084W101    0001670541     2531      336360     01 
000003    20161101           .    I0003       028192    ARCONIC INC                                                  ARNC        03965L100    0000004281     3720      3364       01 
000003    20161101    20161101    I0003       027638    ALCOA CORP                                                   AA          013872106    0001675149     3330      3313       01 
000003    20161101    20161101    I0003       027800    QUALITY CARE PROPERTIES INC                                  QCP         747545101    0001677203     6798      531120     01 
000003    20161101    20161101    I0003       028499    YUM CHINA HOLDINGS INC                                       YUMC        98850P109    0001673358     5812      722511     01 
000003    20161110    20161110    I0003       028790    LAMB WESTON HOLDINGS INC                                     LW          513272104    0001679273     2030      311411     01 
000003    20161202           .    I0003       029649    MID-AMERICA APT CMNTYS INC                                   MAA         59522J103    0000912595     6798      531110     01 
000003    20161202           .    I0003       065967    ENVISION HEALTHCARE CORP                                     EVHC        29414D100    0001678531     8011      621493     01 
000003    20170103    20170103    I0003       028719    CONDUENT INC                                                 CNDT        206787103    0001677703     7374      518210     01 
000003    20170105           .    I0003       024197    IDEXX LABS INC                                               IDXX        45168D104    0000874716     2835      325413     01 
000003    20170117           .    I0003       030923    TECHNIPFMC PLC                                               FTI         G87110105    0001681459     1389      237120     01 
000003    20170130    20170130    I0003       029004    VAREX IMAGING CORP                                           VREX        92214X106    0001681622     3844      334517     01 
